GAS LISTING /tmp/ccvvtIzg.s 			page 1


   1              		.file	"syscall_c.cpp"
   2              		.option pic
   3              		.option norelax
   4              		.text
   5              	.Ltext0:
   6              		.align	2
   7              		.globl	_Z9mem_allocm
   9              	_Z9mem_allocm:
  10              	.LFB31:
  11              		.file 1 "src/syscall_c.cpp"
   1:src/syscall_c.cpp **** //
   2:src/syscall_c.cpp **** // Created by os on 8/15/23.
   3:src/syscall_c.cpp **** //
   4:src/syscall_c.cpp **** #include "../h/syscall_c.hpp"
   5:src/syscall_c.cpp **** #include "../h/riscv.hpp"
   6:src/syscall_c.cpp **** 
   7:src/syscall_c.cpp **** void* mem_alloc(size_t size){
  12              		.loc 1 7 29
  13              		.cfi_startproc
  14              	.LVL0:
  15 0000 130101FE 		addi	sp,sp,-32
  16              		.cfi_def_cfa_offset 32
  17 0004 233C8100 		sd	s0,24(sp)
  18              		.cfi_offset 8, -8
  19 0008 13040102 		addi	s0,sp,32
  20              		.cfi_def_cfa 8, 0
   8:src/syscall_c.cpp ****     Riscv::w_a1(size);
  21              		.loc 1 8 5
  22              	.LVL1:
  23              	.LBB74:
  24              	.LBB75:
  25              		.file 2 "src/../h/riscv.hpp"
   1:src/../h/riscv.hpp **** //
   2:src/../h/riscv.hpp **** // Created by os on 8/14/23.
   3:src/../h/riscv.hpp **** //
   4:src/../h/riscv.hpp **** 
   5:src/../h/riscv.hpp **** #ifndef PROJECT_BASE_RISCV_HPP
   6:src/../h/riscv.hpp **** #define PROJECT_BASE_RISCV_HPP
   7:src/../h/riscv.hpp **** 
   8:src/../h/riscv.hpp **** #include "../lib/hw.h"
   9:src/../h/riscv.hpp **** 
  10:src/../h/riscv.hpp **** class Riscv
  11:src/../h/riscv.hpp **** {
  12:src/../h/riscv.hpp **** public:
  13:src/../h/riscv.hpp **** 
  14:src/../h/riscv.hpp ****     // pop sstatus.spp and sstatus.spie bits (has to be a non inline function)
  15:src/../h/riscv.hpp ****     static void popSppSpie();
  16:src/../h/riscv.hpp **** 
  17:src/../h/riscv.hpp ****     // read register scause
  18:src/../h/riscv.hpp ****     static uint64 r_scause();
  19:src/../h/riscv.hpp **** 
  20:src/../h/riscv.hpp ****     // write register scause
  21:src/../h/riscv.hpp ****     static void w_scause(uint64 scause);
  22:src/../h/riscv.hpp **** 
  23:src/../h/riscv.hpp ****     // read register sepc
  24:src/../h/riscv.hpp ****     static uint64 r_sepc();
  25:src/../h/riscv.hpp **** 
GAS LISTING /tmp/ccvvtIzg.s 			page 2


  26:src/../h/riscv.hpp ****     // write register sepc
  27:src/../h/riscv.hpp ****     static void w_sepc(uint64 sepc);
  28:src/../h/riscv.hpp **** 
  29:src/../h/riscv.hpp ****     // read register stvec
  30:src/../h/riscv.hpp ****     static uint64 r_stvec();
  31:src/../h/riscv.hpp **** 
  32:src/../h/riscv.hpp ****     // write register stvec
  33:src/../h/riscv.hpp ****     static void w_stvec(uint64 stvec);
  34:src/../h/riscv.hpp **** 
  35:src/../h/riscv.hpp ****     // read register stval
  36:src/../h/riscv.hpp ****     static uint64 r_stval();
  37:src/../h/riscv.hpp **** 
  38:src/../h/riscv.hpp ****     // write register stval
  39:src/../h/riscv.hpp ****     static void w_stval(uint64 stval);
  40:src/../h/riscv.hpp **** 
  41:src/../h/riscv.hpp ****     enum BitMaskSip
  42:src/../h/riscv.hpp ****     {
  43:src/../h/riscv.hpp ****         SIP_SSIP = (1 << 1),
  44:src/../h/riscv.hpp ****         SIP_STIP = (1 << 5),
  45:src/../h/riscv.hpp ****         SIP_SEIP = (1 << 9),
  46:src/../h/riscv.hpp ****     };
  47:src/../h/riscv.hpp **** 
  48:src/../h/riscv.hpp ****     // mask set register sip
  49:src/../h/riscv.hpp ****     static void ms_sip(uint64 mask);
  50:src/../h/riscv.hpp **** 
  51:src/../h/riscv.hpp ****     // mask clear register sip
  52:src/../h/riscv.hpp ****     static void mc_sip(uint64 mask);
  53:src/../h/riscv.hpp **** 
  54:src/../h/riscv.hpp ****     // read register sip
  55:src/../h/riscv.hpp ****     static uint64 r_sip();
  56:src/../h/riscv.hpp **** 
  57:src/../h/riscv.hpp ****     // write register sip
  58:src/../h/riscv.hpp ****     static void w_sip(uint64 sip);
  59:src/../h/riscv.hpp **** 
  60:src/../h/riscv.hpp ****     enum BitMaskSstatus
  61:src/../h/riscv.hpp ****     {
  62:src/../h/riscv.hpp ****         SSTATUS_SIE = (1 << 1),
  63:src/../h/riscv.hpp ****         SSTATUS_SPIE = (1 << 5),
  64:src/../h/riscv.hpp ****         SSTATUS_SPP = (1 << 8),
  65:src/../h/riscv.hpp ****     };
  66:src/../h/riscv.hpp **** 
  67:src/../h/riscv.hpp ****     // mask set register sstatus
  68:src/../h/riscv.hpp ****     static void ms_sstatus(uint64 mask);
  69:src/../h/riscv.hpp **** 
  70:src/../h/riscv.hpp ****     // mask clear register sstatus
  71:src/../h/riscv.hpp ****     static void mc_sstatus(uint64 mask);
  72:src/../h/riscv.hpp **** 
  73:src/../h/riscv.hpp ****     // read register sstatus
  74:src/../h/riscv.hpp ****     static uint64 r_sstatus();
  75:src/../h/riscv.hpp **** 
  76:src/../h/riscv.hpp ****     // write register sstatus
  77:src/../h/riscv.hpp ****     static void w_sstatus(uint64 sstatus);
  78:src/../h/riscv.hpp **** 
  79:src/../h/riscv.hpp ****     //read a0
  80:src/../h/riscv.hpp ****     static long r_a0();
  81:src/../h/riscv.hpp **** 
  82:src/../h/riscv.hpp ****     //write a0
GAS LISTING /tmp/ccvvtIzg.s 			page 3


  83:src/../h/riscv.hpp ****     static void w_a0(long a0);
  84:src/../h/riscv.hpp **** 
  85:src/../h/riscv.hpp ****     //read a1
  86:src/../h/riscv.hpp ****     static uint64 r_a1();
  87:src/../h/riscv.hpp **** 
  88:src/../h/riscv.hpp ****     //write a1
  89:src/../h/riscv.hpp ****     static void w_a1(uint64 a1);
  90:src/../h/riscv.hpp **** 
  91:src/../h/riscv.hpp ****     //read a2
  92:src/../h/riscv.hpp ****     static uint64 r_a2();
  93:src/../h/riscv.hpp **** 
  94:src/../h/riscv.hpp ****     //write a2
  95:src/../h/riscv.hpp ****     static void w_a2(uint64 a2);
  96:src/../h/riscv.hpp **** 
  97:src/../h/riscv.hpp ****     //read a3
  98:src/../h/riscv.hpp ****     static uint64 r_a3();
  99:src/../h/riscv.hpp **** 
 100:src/../h/riscv.hpp ****     //write a3
 101:src/../h/riscv.hpp ****     static void w_a3(uint64 a3);
 102:src/../h/riscv.hpp **** 
 103:src/../h/riscv.hpp ****     //read a4
 104:src/../h/riscv.hpp ****     static uint64 r_a4();
 105:src/../h/riscv.hpp **** 
 106:src/../h/riscv.hpp ****     //write a4
 107:src/../h/riscv.hpp ****     static void w_a4(uint64 a4);
 108:src/../h/riscv.hpp **** 
 109:src/../h/riscv.hpp ****     //read a4
 110:src/../h/riscv.hpp ****     static uint64 r_a6();
 111:src/../h/riscv.hpp **** 
 112:src/../h/riscv.hpp ****     //write a4
 113:src/../h/riscv.hpp ****     static void w_a6(uint64 a6);
 114:src/../h/riscv.hpp **** 
 115:src/../h/riscv.hpp ****     //read a4
 116:src/../h/riscv.hpp ****     static uint64 r_a7();
 117:src/../h/riscv.hpp **** 
 118:src/../h/riscv.hpp ****     //write a4
 119:src/../h/riscv.hpp ****     static void w_a7(uint64 a7);
 120:src/../h/riscv.hpp **** 
 121:src/../h/riscv.hpp ****     static void w_a0_stack(long a0);
 122:src/../h/riscv.hpp **** 
 123:src/../h/riscv.hpp ****     static void supervisorTrap();
 124:src/../h/riscv.hpp **** private:
 125:src/../h/riscv.hpp ****     static void handleSupervisorInterrupt();
 126:src/../h/riscv.hpp ****     static void handleConsoleInterrupt();
 127:src/../h/riscv.hpp ****     static void handleTimerInterrupt();
 128:src/../h/riscv.hpp **** 
 129:src/../h/riscv.hpp **** };
 130:src/../h/riscv.hpp **** 
 131:src/../h/riscv.hpp **** inline uint64 Riscv::r_scause()
 132:src/../h/riscv.hpp **** {
 133:src/../h/riscv.hpp ****     uint64 volatile scause;
 134:src/../h/riscv.hpp ****     __asm__ volatile ("csrr %[scause], scause" : [scause] "=r"(scause));
 135:src/../h/riscv.hpp ****     return scause;
 136:src/../h/riscv.hpp **** }
 137:src/../h/riscv.hpp **** 
 138:src/../h/riscv.hpp **** inline void Riscv::w_scause(uint64 scause)
 139:src/../h/riscv.hpp **** {
GAS LISTING /tmp/ccvvtIzg.s 			page 4


 140:src/../h/riscv.hpp ****     __asm__ volatile ("csrw scause, %[scause]" : : [scause] "r"(scause));
 141:src/../h/riscv.hpp **** }
 142:src/../h/riscv.hpp **** 
 143:src/../h/riscv.hpp **** inline uint64 Riscv::r_sepc()
 144:src/../h/riscv.hpp **** {
 145:src/../h/riscv.hpp ****     uint64 volatile sepc;
 146:src/../h/riscv.hpp ****     __asm__ volatile ("csrr %[sepc], sepc" : [sepc] "=r"(sepc));
 147:src/../h/riscv.hpp ****     return sepc;
 148:src/../h/riscv.hpp **** }
 149:src/../h/riscv.hpp **** 
 150:src/../h/riscv.hpp **** inline void Riscv::w_sepc(uint64 sepc)
 151:src/../h/riscv.hpp **** {
 152:src/../h/riscv.hpp ****     __asm__ volatile ("csrw sepc, %[sepc]" : : [sepc] "r"(sepc));
 153:src/../h/riscv.hpp **** }
 154:src/../h/riscv.hpp **** 
 155:src/../h/riscv.hpp **** inline uint64 Riscv::r_stvec()
 156:src/../h/riscv.hpp **** {
 157:src/../h/riscv.hpp ****     uint64 volatile stvec;
 158:src/../h/riscv.hpp ****     __asm__ volatile ("csrr %[stvec], stvec" : [stvec] "=r"(stvec));
 159:src/../h/riscv.hpp ****     return stvec;
 160:src/../h/riscv.hpp **** }
 161:src/../h/riscv.hpp **** 
 162:src/../h/riscv.hpp **** inline void Riscv::w_stvec(uint64 stvec)
 163:src/../h/riscv.hpp **** {
 164:src/../h/riscv.hpp ****     __asm__ volatile ("csrw stvec, %[stvec]" : : [stvec] "r"(stvec));
 165:src/../h/riscv.hpp **** }
 166:src/../h/riscv.hpp **** 
 167:src/../h/riscv.hpp **** inline uint64 Riscv::r_stval()
 168:src/../h/riscv.hpp **** {
 169:src/../h/riscv.hpp ****     uint64 volatile stval;
 170:src/../h/riscv.hpp ****     __asm__ volatile ("csrr %[stval], stval" : [stval] "=r"(stval));
 171:src/../h/riscv.hpp ****     return stval;
 172:src/../h/riscv.hpp **** }
 173:src/../h/riscv.hpp **** 
 174:src/../h/riscv.hpp **** inline void Riscv::w_stval(uint64 stval)
 175:src/../h/riscv.hpp **** {
 176:src/../h/riscv.hpp ****     __asm__ volatile ("csrw stval, %[stval]" : : [stval] "r"(stval));
 177:src/../h/riscv.hpp **** }
 178:src/../h/riscv.hpp **** 
 179:src/../h/riscv.hpp **** inline void Riscv::ms_sip(uint64 mask)
 180:src/../h/riscv.hpp **** {
 181:src/../h/riscv.hpp ****     __asm__ volatile ("csrs sip, %[mask]" : : [mask] "r"(mask));
 182:src/../h/riscv.hpp **** }
 183:src/../h/riscv.hpp **** 
 184:src/../h/riscv.hpp **** inline void Riscv::mc_sip(uint64 mask)
 185:src/../h/riscv.hpp **** {
 186:src/../h/riscv.hpp ****     __asm__ volatile ("csrc sip, %[mask]" : : [mask] "r"(mask));
 187:src/../h/riscv.hpp **** }
 188:src/../h/riscv.hpp **** 
 189:src/../h/riscv.hpp **** inline uint64 Riscv::r_sip()
 190:src/../h/riscv.hpp **** {
 191:src/../h/riscv.hpp ****     uint64 volatile sip;
 192:src/../h/riscv.hpp ****     __asm__ volatile ("csrr %[sip], sip" : [sip] "=r"(sip));
 193:src/../h/riscv.hpp ****     return sip;
 194:src/../h/riscv.hpp **** }
 195:src/../h/riscv.hpp **** 
 196:src/../h/riscv.hpp **** inline void Riscv::w_sip(uint64 sip)
GAS LISTING /tmp/ccvvtIzg.s 			page 5


 197:src/../h/riscv.hpp **** {
 198:src/../h/riscv.hpp ****     __asm__ volatile ("csrw sip, %[sip]" : : [sip] "r"(sip));
 199:src/../h/riscv.hpp **** }
 200:src/../h/riscv.hpp **** 
 201:src/../h/riscv.hpp **** inline void Riscv::ms_sstatus(uint64 mask)
 202:src/../h/riscv.hpp **** {
 203:src/../h/riscv.hpp ****     __asm__ volatile ("csrs sstatus, %[mask]" : : [mask] "r"(mask));
 204:src/../h/riscv.hpp **** }
 205:src/../h/riscv.hpp **** 
 206:src/../h/riscv.hpp **** inline void Riscv::mc_sstatus(uint64 mask)
 207:src/../h/riscv.hpp **** {
 208:src/../h/riscv.hpp ****     __asm__ volatile ("csrc sstatus, %[mask]" : : [mask] "r"(mask));
 209:src/../h/riscv.hpp **** }
 210:src/../h/riscv.hpp **** 
 211:src/../h/riscv.hpp **** inline uint64 Riscv::r_sstatus()
 212:src/../h/riscv.hpp **** {
 213:src/../h/riscv.hpp ****     uint64 volatile sstatus;
 214:src/../h/riscv.hpp ****     __asm__ volatile ("csrr %[sstatus], sstatus" : [sstatus] "=r"(sstatus));
 215:src/../h/riscv.hpp ****     return sstatus;
 216:src/../h/riscv.hpp **** }
 217:src/../h/riscv.hpp **** 
 218:src/../h/riscv.hpp **** inline void Riscv::w_sstatus(uint64 sstatus)
 219:src/../h/riscv.hpp **** {
 220:src/../h/riscv.hpp ****     __asm__ volatile ("csrw sstatus, %[sstatus]" : : [sstatus] "r"(sstatus));
 221:src/../h/riscv.hpp **** }
 222:src/../h/riscv.hpp **** 
 223:src/../h/riscv.hpp **** inline void Riscv::w_a0(long a0) {
 224:src/../h/riscv.hpp ****     __asm__ volatile ("mv a0, %0" : : "r"(a0));
 225:src/../h/riscv.hpp **** }
 226:src/../h/riscv.hpp **** 
 227:src/../h/riscv.hpp **** inline long Riscv::r_a0() {
 228:src/../h/riscv.hpp ****     long volatile a0;
 229:src/../h/riscv.hpp ****     __asm__ volatile ("ld %0, 10*8(fp)" : "=r"(a0));
 230:src/../h/riscv.hpp ****     return a0;
 231:src/../h/riscv.hpp **** }
 232:src/../h/riscv.hpp **** 
 233:src/../h/riscv.hpp **** inline void Riscv::w_a1(uint64 a1) {
 234:src/../h/riscv.hpp ****     __asm__ volatile ("mv a1, %0" : : "r"(a1));
  26              		.loc 2 234 5
  27              		.loc 2 234 47 is_stmt 0
  28              	#APP
  29              	# 234 "src/../h/riscv.hpp" 1
 235              	}
  30              		mv a1, a0
  31              	# 0 "" 2
  32              	.LVL2:
  33              	#NO_APP
  34              	.LBE75:
  35              	.LBE74:
   9:src/syscall_c.cpp ****     Riscv::w_a0(0x01);
  36              		.loc 1 9 5 is_stmt 1
  37              	.LBB76:
  38              	.LBB77:
 224:src/../h/riscv.hpp **** }
  39              		.loc 2 224 5
 224:src/../h/riscv.hpp **** }
  40              		.loc 2 224 47 is_stmt 0
GAS LISTING /tmp/ccvvtIzg.s 			page 6


  41 0010 93071000 		li	a5,1
  42              	#APP
  43              	# 224 "src/../h/riscv.hpp" 1
  44              		mv a0, a5
  45              	# 0 "" 2
  46              	.LVL3:
  47              	#NO_APP
  48              	.LBE77:
  49              	.LBE76:
  10:src/syscall_c.cpp ****     __asm__ volatile ("ecall");
  50              		.loc 1 10 5 is_stmt 1
  51              		.loc 1 10 31 is_stmt 0
  52              	#APP
  53              	# 10 "src/syscall_c.cpp" 1
  11              	
  12:src/syscall_c.cpp ****     volatile uint64 a0;
  54              		ecall
  55              	# 0 "" 2
  56              		.loc 1 12 5 is_stmt 1
  13:src/syscall_c.cpp ****     __asm__ volatile ("mv %0, a0" : "=r"(a0));
  57              		.loc 1 13 5
  58              		.loc 1 13 46 is_stmt 0
  59              	# 13 "src/syscall_c.cpp" 1
  14              	    return (void*)a0;
  60              		mv a5, a0
  61              	# 0 "" 2
  62              	#NO_APP
  63 0020 2334F4FE 		sd	a5,-24(s0)
  64              		.loc 1 14 5 is_stmt 1
  65              		.loc 1 14 19 is_stmt 0
  66 0024 033584FE 		ld	a0,-24(s0)
  67              	.LVL4:
  15:src/syscall_c.cpp **** }
  68              		.loc 1 15 1
  69 0028 03348101 		ld	s0,24(sp)
  70              		.cfi_restore 8
  71              		.cfi_def_cfa 2, 32
  72 002c 13010102 		addi	sp,sp,32
  73              		.cfi_def_cfa_offset 0
  74 0030 67800000 		jr	ra
  75              		.cfi_endproc
  76              	.LFE31:
  78              		.align	2
  79              		.globl	_Z8mem_freePv
  81              	_Z8mem_freePv:
  82              	.LFB32:
  16:src/syscall_c.cpp **** 
  17:src/syscall_c.cpp **** int mem_free(void* ptr){
  83              		.loc 1 17 24 is_stmt 1
  84              		.cfi_startproc
  85              	.LVL5:
  86 0034 130101FE 		addi	sp,sp,-32
  87              		.cfi_def_cfa_offset 32
  88 0038 233C8100 		sd	s0,24(sp)
  89              		.cfi_offset 8, -8
  90 003c 13040102 		addi	s0,sp,32
  91              		.cfi_def_cfa 8, 0
GAS LISTING /tmp/ccvvtIzg.s 			page 7


  18:src/syscall_c.cpp ****     Riscv::w_a1((uint64)ptr);
  92              		.loc 1 18 5
  93              	.LVL6:
  94              	.LBB78:
  95              	.LBB79:
 234:src/../h/riscv.hpp **** }
  96              		.loc 2 234 5
 234:src/../h/riscv.hpp **** }
  97              		.loc 2 234 47 is_stmt 0
  98              	#APP
  99              	# 234 "src/../h/riscv.hpp" 1
 100              		mv a1, a0
 101              	# 0 "" 2
 102              	.LVL7:
 103              	#NO_APP
 104              	.LBE79:
 105              	.LBE78:
  19:src/syscall_c.cpp ****     Riscv::w_a0(0x02);
 106              		.loc 1 19 5 is_stmt 1
 107              	.LBB80:
 108              	.LBB81:
 224:src/../h/riscv.hpp **** }
 109              		.loc 2 224 5
 224:src/../h/riscv.hpp **** }
 110              		.loc 2 224 47 is_stmt 0
 111 0044 93072000 		li	a5,2
 112              	#APP
 113              	# 224 "src/../h/riscv.hpp" 1
 114              		mv a0, a5
 115              	# 0 "" 2
 116              	.LVL8:
 117              	#NO_APP
 118              	.LBE81:
 119              	.LBE80:
  20:src/syscall_c.cpp ****     __asm__ volatile ("ecall");
 120              		.loc 1 20 5 is_stmt 1
 121              		.loc 1 20 31 is_stmt 0
 122              	#APP
 123              	# 20 "src/syscall_c.cpp" 1
  21              	
  22:src/syscall_c.cpp ****     volatile uint64 a0;
 124              		ecall
 125              	# 0 "" 2
 126              		.loc 1 22 5 is_stmt 1
  23:src/syscall_c.cpp ****     __asm__ volatile ("mv %0, a0" : "=r"(a0));
 127              		.loc 1 23 5
 128              		.loc 1 23 46 is_stmt 0
 129              	# 23 "src/syscall_c.cpp" 1
  24              	    return a0;
 130              		mv a5, a0
 131              	# 0 "" 2
 132              	#NO_APP
 133 0054 2334F4FE 		sd	a5,-24(s0)
 134              		.loc 1 24 5 is_stmt 1
 135              		.loc 1 24 12 is_stmt 0
 136 0058 033584FE 		ld	a0,-24(s0)
 137              	.LVL9:
GAS LISTING /tmp/ccvvtIzg.s 			page 8


  25:src/syscall_c.cpp **** }
 138              		.loc 1 25 1
 139 005c 1B050500 		sext.w	a0,a0
 140 0060 03348101 		ld	s0,24(sp)
 141              		.cfi_restore 8
 142              		.cfi_def_cfa 2, 32
 143 0064 13010102 		addi	sp,sp,32
 144              		.cfi_def_cfa_offset 0
 145 0068 67800000 		jr	ra
 146              		.cfi_endproc
 147              	.LFE32:
 149              		.align	2
 150              		.globl	_Z13thread_createPP3PCBPFvPvES2_
 152              	_Z13thread_createPP3PCBPFvPvES2_:
 153              	.LFB33:
  26:src/syscall_c.cpp **** 
  27:src/syscall_c.cpp **** int thread_create(thread_t* handle, void(*start_routine)(void*), void* arg){
 154              		.loc 1 27 76 is_stmt 1
 155              		.cfi_startproc
 156              	.LVL10:
 157 006c 130101FC 		addi	sp,sp,-64
 158              		.cfi_def_cfa_offset 64
 159 0070 233C1102 		sd	ra,56(sp)
 160 0074 23388102 		sd	s0,48(sp)
 161 0078 23349102 		sd	s1,40(sp)
 162 007c 23302103 		sd	s2,32(sp)
 163 0080 233C3101 		sd	s3,24(sp)
 164              		.cfi_offset 1, -8
 165              		.cfi_offset 8, -16
 166              		.cfi_offset 9, -24
 167              		.cfi_offset 18, -32
 168              		.cfi_offset 19, -40
 169 0084 13040104 		addi	s0,sp,64
 170              		.cfi_def_cfa 8, 0
 171 0088 13090500 		mv	s2,a0
 172 008c 93840500 		mv	s1,a1
 173 0090 93090600 		mv	s3,a2
  28:src/syscall_c.cpp ****     void* stack;
 174              		.loc 1 28 5
  29:src/syscall_c.cpp ****     if(start_routine == nullptr) stack = nullptr;
 175              		.loc 1 29 5
 176 0094 638E0504 		beqz	a1,.L8
  30:src/syscall_c.cpp ****     else {
  31:src/syscall_c.cpp ****         stack = mem_alloc(DEFAULT_STACK_SIZE * sizeof(uint64));
 177              		.loc 1 31 9
 178              		.loc 1 31 26 is_stmt 0
 179 0098 37850000 		li	a0,32768
 180              	.LVL11:
 181 009c 97000000 		call	_Z9mem_allocm
 181      E7800000 
 182              	.LVL12:
  32:src/syscall_c.cpp ****         if(stack == nullptr) return -1;
 183              		.loc 1 32 9 is_stmt 1
 184 00a4 630A0504 		beqz	a0,.L11
 185              	.LVL13:
 186              	.L6:
  33:src/syscall_c.cpp ****     }
GAS LISTING /tmp/ccvvtIzg.s 			page 9


  34:src/syscall_c.cpp **** 
  35:src/syscall_c.cpp ****     Riscv::w_a7((uint64)stack);
 187              		.loc 1 35 5
 188              	.LBB82:
 189              	.LBB83:
 236:src/../h/riscv.hpp **** 
 237:src/../h/riscv.hpp **** inline uint64 Riscv::r_a1() {
 238:src/../h/riscv.hpp ****     uint64 volatile a1;
 239:src/../h/riscv.hpp ****     __asm__ volatile ("ld %0, 11*8(fp)" : "=r"(a1));
 240:src/../h/riscv.hpp ****     return a1;
 241:src/../h/riscv.hpp **** }
 242:src/../h/riscv.hpp **** 
 243:src/../h/riscv.hpp **** inline void Riscv::w_a2(uint64 a2) {
 244:src/../h/riscv.hpp ****     __asm__ volatile ("mv a2, %0" : : "r"(a2));
 245:src/../h/riscv.hpp **** }
 246:src/../h/riscv.hpp **** 
 247:src/../h/riscv.hpp **** inline uint64 Riscv::r_a2() {
 248:src/../h/riscv.hpp ****     uint64 volatile a2;
 249:src/../h/riscv.hpp ****     __asm__ volatile ("ld %0, 12*8(fp)" : "=r"(a2));
 250:src/../h/riscv.hpp ****     return a2;
 251:src/../h/riscv.hpp **** }
 252:src/../h/riscv.hpp **** 
 253:src/../h/riscv.hpp **** inline void Riscv::w_a3(uint64 a3) {
 254:src/../h/riscv.hpp ****     __asm__ volatile ("mv a3, %0" : : "r"(a3));
 255:src/../h/riscv.hpp **** }
 256:src/../h/riscv.hpp **** 
 257:src/../h/riscv.hpp **** inline uint64 Riscv::r_a3() {
 258:src/../h/riscv.hpp ****     uint64 volatile a3;
 259:src/../h/riscv.hpp ****     __asm__ volatile ("ld %0, 13*8(fp)" : "=r"(a3));
 260:src/../h/riscv.hpp ****     return a3;
 261:src/../h/riscv.hpp **** }
 262:src/../h/riscv.hpp **** 
 263:src/../h/riscv.hpp **** inline void Riscv::w_a4(uint64 a4) {
 264:src/../h/riscv.hpp ****     __asm__ volatile ("mv a4, %0" : : "r"(a4));
 265:src/../h/riscv.hpp **** }
 266:src/../h/riscv.hpp **** 
 267:src/../h/riscv.hpp **** inline uint64 Riscv::r_a4() {
 268:src/../h/riscv.hpp ****     uint64 volatile a4;
 269:src/../h/riscv.hpp ****     __asm__ volatile ("ld %0, 14*8(fp)" : "=r"(a4));
 270:src/../h/riscv.hpp ****     return a4;
 271:src/../h/riscv.hpp **** }
 272:src/../h/riscv.hpp **** 
 273:src/../h/riscv.hpp **** inline void Riscv::w_a6(uint64 a6) {
 274:src/../h/riscv.hpp ****     __asm__ volatile ("mv a6, %0" : : "r"(a6));
 275:src/../h/riscv.hpp **** }
 276:src/../h/riscv.hpp **** 
 277:src/../h/riscv.hpp **** inline uint64 Riscv::r_a6() {
 278:src/../h/riscv.hpp ****     uint64 volatile a6;
 279:src/../h/riscv.hpp ****     __asm__ volatile ("ld %0, 16*8(fp)" : "=r"(a6));
 280:src/../h/riscv.hpp ****     return a6;
 281:src/../h/riscv.hpp **** }
 282:src/../h/riscv.hpp **** 
 283:src/../h/riscv.hpp **** inline void Riscv::w_a7(uint64 a7) {
 284:src/../h/riscv.hpp ****     __asm__ volatile ("mv a7, %0" : : "r"(a7));
 190              		.loc 2 284 5
 191              		.loc 2 284 47 is_stmt 0
 192              	#APP
GAS LISTING /tmp/ccvvtIzg.s 			page 10


 193              	# 284 "src/../h/riscv.hpp" 1
 285              	}
 194              		mv a7, a0
 195              	# 0 "" 2
 196              	.LVL14:
 197              	#NO_APP
 198              	.LBE83:
 199              	.LBE82:
  36:src/syscall_c.cpp ****     Riscv::w_a6((uint64)arg);           //ne koristi a3 i a4, ni a5 - CPU ih koristi...
 200              		.loc 1 36 5 is_stmt 1
 201              	.LBB84:
 202              	.LBB85:
 274:src/../h/riscv.hpp **** }
 203              		.loc 2 274 5
 274:src/../h/riscv.hpp **** }
 204              		.loc 2 274 47 is_stmt 0
 205              	#APP
 206              	# 274 "src/../h/riscv.hpp" 1
 207              		mv a6, s3
 208              	# 0 "" 2
 209              	.LVL15:
 210              	#NO_APP
 211              	.LBE85:
 212              	.LBE84:
  37:src/syscall_c.cpp ****     Riscv::w_a2((uint64)start_routine);
 213              		.loc 1 37 5 is_stmt 1
 214              	.LBB86:
 215              	.LBB87:
 244:src/../h/riscv.hpp **** }
 216              		.loc 2 244 5
 244:src/../h/riscv.hpp **** }
 217              		.loc 2 244 47 is_stmt 0
 218              	#APP
 219              	# 244 "src/../h/riscv.hpp" 1
 220              		mv a2, s1
 221              	# 0 "" 2
 222              	.LVL16:
 223              	#NO_APP
 224              	.LBE87:
 225              	.LBE86:
  38:src/syscall_c.cpp ****     Riscv::w_a1((uint64)handle);
 226              		.loc 1 38 5 is_stmt 1
 227              	.LBB88:
 228              	.LBB89:
 234:src/../h/riscv.hpp **** }
 229              		.loc 2 234 5
 234:src/../h/riscv.hpp **** }
 230              		.loc 2 234 47 is_stmt 0
 231              	#APP
 232              	# 234 "src/../h/riscv.hpp" 1
 233              		mv a1, s2
 234              	# 0 "" 2
 235              	.LVL17:
 236              	#NO_APP
 237              	.LBE89:
 238              	.LBE88:
  39:src/syscall_c.cpp ****     Riscv::w_a0(0x11);
GAS LISTING /tmp/ccvvtIzg.s 			page 11


 239              		.loc 1 39 5 is_stmt 1
 240              	.LBB90:
 241              	.LBB91:
 224:src/../h/riscv.hpp **** }
 242              		.loc 2 224 5
 224:src/../h/riscv.hpp **** }
 243              		.loc 2 224 47 is_stmt 0
 244 00b8 93071001 		li	a5,17
 245              	#APP
 246              	# 224 "src/../h/riscv.hpp" 1
 247              		mv a0, a5
 248              	# 0 "" 2
 249              	.LVL18:
 250              	#NO_APP
 251              	.LBE91:
 252              	.LBE90:
  40:src/syscall_c.cpp ****     __asm__ volatile ("ecall");
 253              		.loc 1 40 5 is_stmt 1
 254              		.loc 1 40 31 is_stmt 0
 255              	#APP
 256              	# 40 "src/syscall_c.cpp" 1
  41              	
  42:src/syscall_c.cpp ****     volatile uint64 a0;
 257              		ecall
 258              	# 0 "" 2
 259              		.loc 1 42 5 is_stmt 1
  43:src/syscall_c.cpp ****     __asm__ volatile ("mv %0, a0" : "=r" (a0));
 260              		.loc 1 43 5
 261              		.loc 1 43 47 is_stmt 0
 262              	# 43 "src/syscall_c.cpp" 1
  44              	    return a0;
 263              		mv a5, a0
 264              	# 0 "" 2
 265              	#NO_APP
 266 00c8 2334F4FC 		sd	a5,-56(s0)
 267              		.loc 1 44 5 is_stmt 1
 268              		.loc 1 44 12 is_stmt 0
 269 00cc 033584FC 		ld	a0,-56(s0)
 270              	.LVL19:
 271 00d0 1B050500 		sext.w	a0,a0
 272              	.L7:
  45:src/syscall_c.cpp **** }
 273              		.loc 1 45 1
 274 00d4 83308103 		ld	ra,56(sp)
 275              		.cfi_remember_state
 276              		.cfi_restore 1
 277 00d8 03340103 		ld	s0,48(sp)
 278              		.cfi_restore 8
 279              		.cfi_def_cfa 2, 64
 280 00dc 83348102 		ld	s1,40(sp)
 281              		.cfi_restore 9
 282              	.LVL20:
 283 00e0 03390102 		ld	s2,32(sp)
 284              		.cfi_restore 18
 285              	.LVL21:
 286 00e4 83398101 		ld	s3,24(sp)
 287              		.cfi_restore 19
GAS LISTING /tmp/ccvvtIzg.s 			page 12


 288              	.LVL22:
 289 00e8 13010104 		addi	sp,sp,64
 290              		.cfi_def_cfa_offset 0
 291 00ec 67800000 		jr	ra
 292              	.LVL23:
 293              	.L8:
 294              		.cfi_restore_state
  29:src/syscall_c.cpp ****     else {
 295              		.loc 1 29 40
 296 00f0 13050000 		li	a0,0
 297              	.LVL24:
 298 00f4 6FF05FFB 		j	.L6
 299              	.LVL25:
 300              	.L11:
  32:src/syscall_c.cpp ****     }
 301              		.loc 1 32 38
 302 00f8 1305F0FF 		li	a0,-1
 303              	.LVL26:
 304 00fc 6FF09FFD 		j	.L7
 305              		.cfi_endproc
 306              	.LFE33:
 308              		.align	2
 309              		.globl	_Z14_thread_createPP3PCBPFvPvES2_
 311              	_Z14_thread_createPP3PCBPFvPvES2_:
 312              	.LFB34:
  46:src/syscall_c.cpp **** 
  47:src/syscall_c.cpp **** int _thread_create(thread_t* handle, void(*start_routine)(void*), void* arg){
 313              		.loc 1 47 77 is_stmt 1
 314              		.cfi_startproc
 315              	.LVL27:
 316 0100 130101FC 		addi	sp,sp,-64
 317              		.cfi_def_cfa_offset 64
 318 0104 233C1102 		sd	ra,56(sp)
 319 0108 23388102 		sd	s0,48(sp)
 320 010c 23349102 		sd	s1,40(sp)
 321 0110 23302103 		sd	s2,32(sp)
 322 0114 233C3101 		sd	s3,24(sp)
 323              		.cfi_offset 1, -8
 324              		.cfi_offset 8, -16
 325              		.cfi_offset 9, -24
 326              		.cfi_offset 18, -32
 327              		.cfi_offset 19, -40
 328 0118 13040104 		addi	s0,sp,64
 329              		.cfi_def_cfa 8, 0
 330 011c 13090500 		mv	s2,a0
 331 0120 93840500 		mv	s1,a1
 332 0124 93090600 		mv	s3,a2
  48:src/syscall_c.cpp ****     void* stack;
 333              		.loc 1 48 5
  49:src/syscall_c.cpp ****     if(start_routine == nullptr) stack = nullptr;
 334              		.loc 1 49 5
 335 0128 638E0504 		beqz	a1,.L15
  50:src/syscall_c.cpp ****     else {
  51:src/syscall_c.cpp ****         stack = mem_alloc(DEFAULT_STACK_SIZE * sizeof(uint64));
 336              		.loc 1 51 9
 337              		.loc 1 51 26 is_stmt 0
 338 012c 37850000 		li	a0,32768
GAS LISTING /tmp/ccvvtIzg.s 			page 13


 339              	.LVL28:
 340 0130 97000000 		call	_Z9mem_allocm
 340      E7800000 
 341              	.LVL29:
  52:src/syscall_c.cpp ****         if(stack == nullptr) return -1;
 342              		.loc 1 52 9 is_stmt 1
 343 0138 630A0504 		beqz	a0,.L18
 344              	.LVL30:
 345              	.L13:
  53:src/syscall_c.cpp ****     }
  54:src/syscall_c.cpp **** 
  55:src/syscall_c.cpp ****     Riscv::w_a7((uint64)stack);
 346              		.loc 1 55 5
 347              	.LBB92:
 348              	.LBB93:
 284:src/../h/riscv.hpp **** }
 349              		.loc 2 284 5
 284:src/../h/riscv.hpp **** }
 350              		.loc 2 284 47 is_stmt 0
 351              	#APP
 352              	# 284 "src/../h/riscv.hpp" 1
 353              		mv a7, a0
 354              	# 0 "" 2
 355              	.LVL31:
 356              	#NO_APP
 357              	.LBE93:
 358              	.LBE92:
  56:src/syscall_c.cpp ****     Riscv::w_a6((uint64)arg);
 359              		.loc 1 56 5 is_stmt 1
 360              	.LBB94:
 361              	.LBB95:
 274:src/../h/riscv.hpp **** }
 362              		.loc 2 274 5
 274:src/../h/riscv.hpp **** }
 363              		.loc 2 274 47 is_stmt 0
 364              	#APP
 365              	# 274 "src/../h/riscv.hpp" 1
 366              		mv a6, s3
 367              	# 0 "" 2
 368              	.LVL32:
 369              	#NO_APP
 370              	.LBE95:
 371              	.LBE94:
  57:src/syscall_c.cpp ****     Riscv::w_a2((uint64)start_routine);
 372              		.loc 1 57 5 is_stmt 1
 373              	.LBB96:
 374              	.LBB97:
 244:src/../h/riscv.hpp **** }
 375              		.loc 2 244 5
 244:src/../h/riscv.hpp **** }
 376              		.loc 2 244 47 is_stmt 0
 377              	#APP
 378              	# 244 "src/../h/riscv.hpp" 1
 379              		mv a2, s1
 380              	# 0 "" 2
 381              	.LVL33:
 382              	#NO_APP
GAS LISTING /tmp/ccvvtIzg.s 			page 14


 383              	.LBE97:
 384              	.LBE96:
  58:src/syscall_c.cpp ****     Riscv::w_a1((uint64)handle);
 385              		.loc 1 58 5 is_stmt 1
 386              	.LBB98:
 387              	.LBB99:
 234:src/../h/riscv.hpp **** }
 388              		.loc 2 234 5
 234:src/../h/riscv.hpp **** }
 389              		.loc 2 234 47 is_stmt 0
 390              	#APP
 391              	# 234 "src/../h/riscv.hpp" 1
 392              		mv a1, s2
 393              	# 0 "" 2
 394              	.LVL34:
 395              	#NO_APP
 396              	.LBE99:
 397              	.LBE98:
  59:src/syscall_c.cpp ****     Riscv::w_a0(0x16);
 398              		.loc 1 59 5 is_stmt 1
 399              	.LBB100:
 400              	.LBB101:
 224:src/../h/riscv.hpp **** }
 401              		.loc 2 224 5
 224:src/../h/riscv.hpp **** }
 402              		.loc 2 224 47 is_stmt 0
 403 014c 93076001 		li	a5,22
 404              	#APP
 405              	# 224 "src/../h/riscv.hpp" 1
 406              		mv a0, a5
 407              	# 0 "" 2
 408              	.LVL35:
 409              	#NO_APP
 410              	.LBE101:
 411              	.LBE100:
  60:src/syscall_c.cpp ****     __asm__ volatile ("ecall");
 412              		.loc 1 60 5 is_stmt 1
 413              		.loc 1 60 31 is_stmt 0
 414              	#APP
 415              	# 60 "src/syscall_c.cpp" 1
  61              	
  62:src/syscall_c.cpp ****     volatile uint64 a0;
 416              		ecall
 417              	# 0 "" 2
 418              		.loc 1 62 5 is_stmt 1
  63:src/syscall_c.cpp ****     __asm__ volatile ("mv %0, a0" : "=r" (a0));
 419              		.loc 1 63 5
 420              		.loc 1 63 47 is_stmt 0
 421              	# 63 "src/syscall_c.cpp" 1
  64              	    return a0;
 422              		mv a5, a0
 423              	# 0 "" 2
 424              	#NO_APP
 425 015c 2334F4FC 		sd	a5,-56(s0)
 426              		.loc 1 64 5 is_stmt 1
 427              		.loc 1 64 12 is_stmt 0
 428 0160 033584FC 		ld	a0,-56(s0)
GAS LISTING /tmp/ccvvtIzg.s 			page 15


 429              	.LVL36:
 430 0164 1B050500 		sext.w	a0,a0
 431              	.L14:
  65:src/syscall_c.cpp **** }
 432              		.loc 1 65 1
 433 0168 83308103 		ld	ra,56(sp)
 434              		.cfi_remember_state
 435              		.cfi_restore 1
 436 016c 03340103 		ld	s0,48(sp)
 437              		.cfi_restore 8
 438              		.cfi_def_cfa 2, 64
 439 0170 83348102 		ld	s1,40(sp)
 440              		.cfi_restore 9
 441              	.LVL37:
 442 0174 03390102 		ld	s2,32(sp)
 443              		.cfi_restore 18
 444              	.LVL38:
 445 0178 83398101 		ld	s3,24(sp)
 446              		.cfi_restore 19
 447              	.LVL39:
 448 017c 13010104 		addi	sp,sp,64
 449              		.cfi_def_cfa_offset 0
 450 0180 67800000 		jr	ra
 451              	.LVL40:
 452              	.L15:
 453              		.cfi_restore_state
  49:src/syscall_c.cpp ****     else {
 454              		.loc 1 49 40
 455 0184 13050000 		li	a0,0
 456              	.LVL41:
 457 0188 6FF05FFB 		j	.L13
 458              	.LVL42:
 459              	.L18:
  52:src/syscall_c.cpp ****     }
 460              		.loc 1 52 38
 461 018c 1305F0FF 		li	a0,-1
 462              	.LVL43:
 463 0190 6FF09FFD 		j	.L14
 464              		.cfi_endproc
 465              	.LFE34:
 467              		.align	2
 468              		.globl	_Z11thread_exitv
 470              	_Z11thread_exitv:
 471              	.LFB35:
  66:src/syscall_c.cpp **** 
  67:src/syscall_c.cpp **** int thread_exit(){
 472              		.loc 1 67 18 is_stmt 1
 473              		.cfi_startproc
 474 0194 130101FE 		addi	sp,sp,-32
 475              		.cfi_def_cfa_offset 32
 476 0198 233C8100 		sd	s0,24(sp)
 477              		.cfi_offset 8, -8
 478 019c 13040102 		addi	s0,sp,32
 479              		.cfi_def_cfa 8, 0
  68:src/syscall_c.cpp ****     Riscv::w_a0(0x12);
 480              		.loc 1 68 5
 481              	.LVL44:
GAS LISTING /tmp/ccvvtIzg.s 			page 16


 482              	.LBB102:
 483              	.LBB103:
 224:src/../h/riscv.hpp **** }
 484              		.loc 2 224 5
 224:src/../h/riscv.hpp **** }
 485              		.loc 2 224 47 is_stmt 0
 486 01a0 93072001 		li	a5,18
 487              	#APP
 488              	# 224 "src/../h/riscv.hpp" 1
 489              		mv a0, a5
 490              	# 0 "" 2
 491              	.LVL45:
 492              	#NO_APP
 493              	.LBE103:
 494              	.LBE102:
  69:src/syscall_c.cpp ****     __asm__ volatile("ecall");
 495              		.loc 1 69 5 is_stmt 1
 496              		.loc 1 69 30 is_stmt 0
 497              	#APP
 498              	# 69 "src/syscall_c.cpp" 1
  70              	
  71:src/syscall_c.cpp ****     volatile uint64 a0;
 499              		ecall
 500              	# 0 "" 2
 501              		.loc 1 71 5 is_stmt 1
  72:src/syscall_c.cpp ****     __asm__ volatile ("mv %0, a0" : "=r"(a0));
 502              		.loc 1 72 5
 503              		.loc 1 72 46 is_stmt 0
 504              	# 72 "src/syscall_c.cpp" 1
  73              	    return a0;
 505              		mv a5, a0
 506              	# 0 "" 2
 507              	#NO_APP
 508 01b0 2334F4FE 		sd	a5,-24(s0)
 509              		.loc 1 73 5 is_stmt 1
 510              		.loc 1 73 12 is_stmt 0
 511 01b4 033584FE 		ld	a0,-24(s0)
  74:src/syscall_c.cpp **** }
 512              		.loc 1 74 1
 513 01b8 1B050500 		sext.w	a0,a0
 514 01bc 03348101 		ld	s0,24(sp)
 515              		.cfi_restore 8
 516              		.cfi_def_cfa 2, 32
 517 01c0 13010102 		addi	sp,sp,32
 518              		.cfi_def_cfa_offset 0
 519 01c4 67800000 		jr	ra
 520              		.cfi_endproc
 521              	.LFE35:
 523              		.align	2
 524              		.globl	_Z15thread_dispatchv
 526              	_Z15thread_dispatchv:
 527              	.LFB36:
  75:src/syscall_c.cpp **** 
  76:src/syscall_c.cpp **** void thread_dispatch(){
 528              		.loc 1 76 23 is_stmt 1
 529              		.cfi_startproc
 530 01c8 130101FF 		addi	sp,sp,-16
GAS LISTING /tmp/ccvvtIzg.s 			page 17


 531              		.cfi_def_cfa_offset 16
 532 01cc 23348100 		sd	s0,8(sp)
 533              		.cfi_offset 8, -8
 534 01d0 13040101 		addi	s0,sp,16
 535              		.cfi_def_cfa 8, 0
  77:src/syscall_c.cpp ****     Riscv::w_a0(0x13);
 536              		.loc 1 77 5
 537              	.LVL46:
 538              	.LBB104:
 539              	.LBB105:
 224:src/../h/riscv.hpp **** }
 540              		.loc 2 224 5
 224:src/../h/riscv.hpp **** }
 541              		.loc 2 224 47 is_stmt 0
 542 01d4 93073001 		li	a5,19
 543              	#APP
 544              	# 224 "src/../h/riscv.hpp" 1
 545              		mv a0, a5
 546              	# 0 "" 2
 547              	.LVL47:
 548              	#NO_APP
 549              	.LBE105:
 550              	.LBE104:
  78:src/syscall_c.cpp ****     __asm__ volatile("ecall");
 551              		.loc 1 78 5 is_stmt 1
 552              		.loc 1 78 30 is_stmt 0
 553              	#APP
 554              	# 78 "src/syscall_c.cpp" 1
  79              	}
 555              		ecall
 556              	# 0 "" 2
 557              		.loc 1 79 1
 558              	#NO_APP
 559 01e0 03348100 		ld	s0,8(sp)
 560              		.cfi_restore 8
 561              		.cfi_def_cfa 2, 16
 562 01e4 13010101 		addi	sp,sp,16
 563              		.cfi_def_cfa_offset 0
 564 01e8 67800000 		jr	ra
 565              		.cfi_endproc
 566              	.LFE36:
 568              		.align	2
 569              		.globl	_Z11thread_joinP3PCB
 571              	_Z11thread_joinP3PCB:
 572              	.LFB37:
  80:src/syscall_c.cpp **** 
  81:src/syscall_c.cpp **** void thread_join(thread_t handle){
 573              		.loc 1 81 34 is_stmt 1
 574              		.cfi_startproc
 575              	.LVL48:
 576 01ec 130101FF 		addi	sp,sp,-16
 577              		.cfi_def_cfa_offset 16
 578 01f0 23348100 		sd	s0,8(sp)
 579              		.cfi_offset 8, -8
 580 01f4 13040101 		addi	s0,sp,16
 581              		.cfi_def_cfa 8, 0
  82:src/syscall_c.cpp ****     Riscv::w_a1((uint64)handle);
GAS LISTING /tmp/ccvvtIzg.s 			page 18


 582              		.loc 1 82 5
 583              	.LVL49:
 584              	.LBB106:
 585              	.LBB107:
 234:src/../h/riscv.hpp **** }
 586              		.loc 2 234 5
 234:src/../h/riscv.hpp **** }
 587              		.loc 2 234 47 is_stmt 0
 588              	#APP
 589              	# 234 "src/../h/riscv.hpp" 1
 590              		mv a1, a0
 591              	# 0 "" 2
 592              	.LVL50:
 593              	#NO_APP
 594              	.LBE107:
 595              	.LBE106:
  83:src/syscall_c.cpp ****     Riscv::w_a0(0x14);
 596              		.loc 1 83 5 is_stmt 1
 597              	.LBB108:
 598              	.LBB109:
 224:src/../h/riscv.hpp **** }
 599              		.loc 2 224 5
 224:src/../h/riscv.hpp **** }
 600              		.loc 2 224 47 is_stmt 0
 601 01fc 93074001 		li	a5,20
 602              	#APP
 603              	# 224 "src/../h/riscv.hpp" 1
 604              		mv a0, a5
 605              	# 0 "" 2
 606              	.LVL51:
 607              	#NO_APP
 608              	.LBE109:
 609              	.LBE108:
  84:src/syscall_c.cpp ****     __asm__ volatile("ecall");
 610              		.loc 1 84 5 is_stmt 1
 611              		.loc 1 84 30 is_stmt 0
 612              	#APP
 613              	# 84 "src/syscall_c.cpp" 1
  85              	}
 614              		ecall
 615              	# 0 "" 2
 616              		.loc 1 85 1
 617              	#NO_APP
 618 0208 03348100 		ld	s0,8(sp)
 619              		.cfi_restore 8
 620              		.cfi_def_cfa 2, 16
 621 020c 13010101 		addi	sp,sp,16
 622              		.cfi_def_cfa_offset 0
 623 0210 67800000 		jr	ra
 624              		.cfi_endproc
 625              	.LFE37:
 627              		.align	2
 628              		.globl	_Z12thread_startP3PCB
 630              	_Z12thread_startP3PCB:
 631              	.LFB38:
  86:src/syscall_c.cpp **** 
  87:src/syscall_c.cpp **** int thread_start(thread_t handle){
GAS LISTING /tmp/ccvvtIzg.s 			page 19


 632              		.loc 1 87 34 is_stmt 1
 633              		.cfi_startproc
 634              	.LVL52:
 635 0214 130101FE 		addi	sp,sp,-32
 636              		.cfi_def_cfa_offset 32
 637 0218 233C8100 		sd	s0,24(sp)
 638              		.cfi_offset 8, -8
 639 021c 13040102 		addi	s0,sp,32
 640              		.cfi_def_cfa 8, 0
  88:src/syscall_c.cpp ****     Riscv::w_a1((uint64)handle);
 641              		.loc 1 88 5
 642              	.LVL53:
 643              	.LBB110:
 644              	.LBB111:
 234:src/../h/riscv.hpp **** }
 645              		.loc 2 234 5
 234:src/../h/riscv.hpp **** }
 646              		.loc 2 234 47 is_stmt 0
 647              	#APP
 648              	# 234 "src/../h/riscv.hpp" 1
 649              		mv a1, a0
 650              	# 0 "" 2
 651              	.LVL54:
 652              	#NO_APP
 653              	.LBE111:
 654              	.LBE110:
  89:src/syscall_c.cpp ****     Riscv::w_a0(0x15);
 655              		.loc 1 89 5 is_stmt 1
 656              	.LBB112:
 657              	.LBB113:
 224:src/../h/riscv.hpp **** }
 658              		.loc 2 224 5
 224:src/../h/riscv.hpp **** }
 659              		.loc 2 224 47 is_stmt 0
 660 0224 93075001 		li	a5,21
 661              	#APP
 662              	# 224 "src/../h/riscv.hpp" 1
 663              		mv a0, a5
 664              	# 0 "" 2
 665              	.LVL55:
 666              	#NO_APP
 667              	.LBE113:
 668              	.LBE112:
  90:src/syscall_c.cpp ****     __asm__ volatile ("ecall");
 669              		.loc 1 90 5 is_stmt 1
 670              		.loc 1 90 31 is_stmt 0
 671              	#APP
 672              	# 90 "src/syscall_c.cpp" 1
  91              	
  92:src/syscall_c.cpp ****     volatile uint64 a0;
 673              		ecall
 674              	# 0 "" 2
 675              		.loc 1 92 5 is_stmt 1
  93:src/syscall_c.cpp ****     __asm__ volatile ("mv %0, a0" : "=r"(a0));
 676              		.loc 1 93 5
 677              		.loc 1 93 46 is_stmt 0
 678              	# 93 "src/syscall_c.cpp" 1
GAS LISTING /tmp/ccvvtIzg.s 			page 20


  94              	    return a0;
 679              		mv a5, a0
 680              	# 0 "" 2
 681              	#NO_APP
 682 0234 2334F4FE 		sd	a5,-24(s0)
 683              		.loc 1 94 5 is_stmt 1
 684              		.loc 1 94 12 is_stmt 0
 685 0238 033584FE 		ld	a0,-24(s0)
 686              	.LVL56:
  95:src/syscall_c.cpp **** }
 687              		.loc 1 95 1
 688 023c 1B050500 		sext.w	a0,a0
 689 0240 03348101 		ld	s0,24(sp)
 690              		.cfi_restore 8
 691              		.cfi_def_cfa 2, 32
 692 0244 13010102 		addi	sp,sp,32
 693              		.cfi_def_cfa_offset 0
 694 0248 67800000 		jr	ra
 695              		.cfi_endproc
 696              	.LFE38:
 698              		.align	2
 699              		.globl	_Z4pingP3PCB
 701              	_Z4pingP3PCB:
 702              	.LFB39:
  96:src/syscall_c.cpp **** 
  97:src/syscall_c.cpp **** void ping(thread_t handle){
 703              		.loc 1 97 27 is_stmt 1
 704              		.cfi_startproc
 705              	.LVL57:
 706 024c 130101FF 		addi	sp,sp,-16
 707              		.cfi_def_cfa_offset 16
 708 0250 23348100 		sd	s0,8(sp)
 709              		.cfi_offset 8, -8
 710 0254 13040101 		addi	s0,sp,16
 711              		.cfi_def_cfa 8, 0
  98:src/syscall_c.cpp ****     Riscv::w_a1((uint64)handle);
 712              		.loc 1 98 5
 713              	.LVL58:
 714              	.LBB114:
 715              	.LBB115:
 234:src/../h/riscv.hpp **** }
 716              		.loc 2 234 5
 234:src/../h/riscv.hpp **** }
 717              		.loc 2 234 47 is_stmt 0
 718              	#APP
 719              	# 234 "src/../h/riscv.hpp" 1
 720              		mv a1, a0
 721              	# 0 "" 2
 722              	.LVL59:
 723              	#NO_APP
 724              	.LBE115:
 725              	.LBE114:
  99:src/syscall_c.cpp ****     Riscv::w_a0(0x17);
 726              		.loc 1 99 5 is_stmt 1
 727              	.LBB116:
 728              	.LBB117:
 224:src/../h/riscv.hpp **** }
GAS LISTING /tmp/ccvvtIzg.s 			page 21


 729              		.loc 2 224 5
 224:src/../h/riscv.hpp **** }
 730              		.loc 2 224 47 is_stmt 0
 731 025c 93077001 		li	a5,23
 732              	#APP
 733              	# 224 "src/../h/riscv.hpp" 1
 734              		mv a0, a5
 735              	# 0 "" 2
 736              	.LVL60:
 737              	#NO_APP
 738              	.LBE117:
 739              	.LBE116:
 100:src/syscall_c.cpp ****     __asm__ volatile ("ecall");
 740              		.loc 1 100 5 is_stmt 1
 741              		.loc 1 100 31 is_stmt 0
 742              	#APP
 743              	# 100 "src/syscall_c.cpp" 1
 101              	}
 744              		ecall
 745              	# 0 "" 2
 746              		.loc 1 101 1
 747              	#NO_APP
 748 0268 03348100 		ld	s0,8(sp)
 749              		.cfi_restore 8
 750              		.cfi_def_cfa 2, 16
 751 026c 13010101 		addi	sp,sp,16
 752              		.cfi_def_cfa_offset 0
 753 0270 67800000 		jr	ra
 754              		.cfi_endproc
 755              	.LFE39:
 757              		.align	2
 758              		.globl	_Z13get_thread_idv
 760              	_Z13get_thread_idv:
 761              	.LFB40:
 102:src/syscall_c.cpp **** 
 103:src/syscall_c.cpp **** int get_thread_id(){
 762              		.loc 1 103 20 is_stmt 1
 763              		.cfi_startproc
 764 0274 130101FE 		addi	sp,sp,-32
 765              		.cfi_def_cfa_offset 32
 766 0278 233C8100 		sd	s0,24(sp)
 767              		.cfi_offset 8, -8
 768 027c 13040102 		addi	s0,sp,32
 769              		.cfi_def_cfa 8, 0
 104:src/syscall_c.cpp ****     Riscv::w_a0(0x50);
 770              		.loc 1 104 5
 771              	.LVL61:
 772              	.LBB118:
 773              	.LBB119:
 224:src/../h/riscv.hpp **** }
 774              		.loc 2 224 5
 224:src/../h/riscv.hpp **** }
 775              		.loc 2 224 47 is_stmt 0
 776 0280 93070005 		li	a5,80
 777              	#APP
 778              	# 224 "src/../h/riscv.hpp" 1
 779              		mv a0, a5
GAS LISTING /tmp/ccvvtIzg.s 			page 22


 780              	# 0 "" 2
 781              	.LVL62:
 782              	#NO_APP
 783              	.LBE119:
 784              	.LBE118:
 105:src/syscall_c.cpp ****     __asm__ volatile ("ecall");
 785              		.loc 1 105 5 is_stmt 1
 786              		.loc 1 105 31 is_stmt 0
 787              	#APP
 788              	# 105 "src/syscall_c.cpp" 1
 106              	
 107:src/syscall_c.cpp ****     volatile uint64 a0;
 789              		ecall
 790              	# 0 "" 2
 791              		.loc 1 107 5 is_stmt 1
 108:src/syscall_c.cpp ****     __asm__ volatile ("mv %0, a0" : "=r"(a0));
 792              		.loc 1 108 5
 793              		.loc 1 108 46 is_stmt 0
 794              	# 108 "src/syscall_c.cpp" 1
 109              	    return a0;
 795              		mv a5, a0
 796              	# 0 "" 2
 797              	#NO_APP
 798 0290 2334F4FE 		sd	a5,-24(s0)
 799              		.loc 1 109 5 is_stmt 1
 800              		.loc 1 109 12 is_stmt 0
 801 0294 033584FE 		ld	a0,-24(s0)
 110:src/syscall_c.cpp **** }
 802              		.loc 1 110 1
 803 0298 1B050500 		sext.w	a0,a0
 804 029c 03348101 		ld	s0,24(sp)
 805              		.cfi_restore 8
 806              		.cfi_def_cfa 2, 32
 807 02a0 13010102 		addi	sp,sp,32
 808              		.cfi_def_cfa_offset 0
 809 02a4 67800000 		jr	ra
 810              		.cfi_endproc
 811              	.LFE40:
 813              		.align	2
 814              		.globl	_Z8sem_openPP3Semj
 816              	_Z8sem_openPP3Semj:
 817              	.LFB41:
 111:src/syscall_c.cpp **** 
 112:src/syscall_c.cpp **** int sem_open(sem_t* handle, unsigned init){
 818              		.loc 1 112 43 is_stmt 1
 819              		.cfi_startproc
 820              	.LVL63:
 821 02a8 130101FE 		addi	sp,sp,-32
 822              		.cfi_def_cfa_offset 32
 823 02ac 233C8100 		sd	s0,24(sp)
 824              		.cfi_offset 8, -8
 825 02b0 13040102 		addi	s0,sp,32
 826              		.cfi_def_cfa 8, 0
 113:src/syscall_c.cpp ****     Riscv::w_a2((uint64)init);
 827              		.loc 1 113 5
 828              		.loc 1 113 16 is_stmt 0
 829 02b4 93950502 		slli	a1,a1,32
GAS LISTING /tmp/ccvvtIzg.s 			page 23


 830              	.LVL64:
 831 02b8 93D50502 		srli	a1,a1,32
 832              	.LVL65:
 833              	.LBB120:
 834              	.LBB121:
 244:src/../h/riscv.hpp **** }
 835              		.loc 2 244 5 is_stmt 1
 244:src/../h/riscv.hpp **** }
 836              		.loc 2 244 47 is_stmt 0
 837              	#APP
 838              	# 244 "src/../h/riscv.hpp" 1
 839              		mv a2, a1
 840              	# 0 "" 2
 841              	.LVL66:
 842              	#NO_APP
 843              	.LBE121:
 844              	.LBE120:
 114:src/syscall_c.cpp ****     Riscv::w_a1((uint64)handle);
 845              		.loc 1 114 5 is_stmt 1
 846              	.LBB122:
 847              	.LBB123:
 234:src/../h/riscv.hpp **** }
 848              		.loc 2 234 5
 234:src/../h/riscv.hpp **** }
 849              		.loc 2 234 47 is_stmt 0
 850              	#APP
 851              	# 234 "src/../h/riscv.hpp" 1
 852              		mv a1, a0
 853              	# 0 "" 2
 854              	.LVL67:
 855              	#NO_APP
 856              	.LBE123:
 857              	.LBE122:
 115:src/syscall_c.cpp ****     Riscv::w_a0(0x21);
 858              		.loc 1 115 5 is_stmt 1
 859              	.LBB124:
 860              	.LBB125:
 224:src/../h/riscv.hpp **** }
 861              		.loc 2 224 5
 224:src/../h/riscv.hpp **** }
 862              		.loc 2 224 47 is_stmt 0
 863 02c4 93071002 		li	a5,33
 864              	#APP
 865              	# 224 "src/../h/riscv.hpp" 1
 866              		mv a0, a5
 867              	# 0 "" 2
 868              	.LVL68:
 869              	#NO_APP
 870              	.LBE125:
 871              	.LBE124:
 116:src/syscall_c.cpp ****     __asm__ volatile("ecall");
 872              		.loc 1 116 5 is_stmt 1
 873              		.loc 1 116 30 is_stmt 0
 874              	#APP
 875              	# 116 "src/syscall_c.cpp" 1
 117              	
 118:src/syscall_c.cpp ****     volatile uint64 a0;
GAS LISTING /tmp/ccvvtIzg.s 			page 24


 876              		ecall
 877              	# 0 "" 2
 878              		.loc 1 118 5 is_stmt 1
 119:src/syscall_c.cpp ****     __asm__ volatile ("mv %0, a0" : "=r"(a0));
 879              		.loc 1 119 5
 880              		.loc 1 119 46 is_stmt 0
 881              	# 119 "src/syscall_c.cpp" 1
 120              	    return a0;
 882              		mv a5, a0
 883              	# 0 "" 2
 884              	#NO_APP
 885 02d4 2334F4FE 		sd	a5,-24(s0)
 886              		.loc 1 120 5 is_stmt 1
 887              		.loc 1 120 12 is_stmt 0
 888 02d8 033584FE 		ld	a0,-24(s0)
 889              	.LVL69:
 121:src/syscall_c.cpp **** }
 890              		.loc 1 121 1
 891 02dc 1B050500 		sext.w	a0,a0
 892 02e0 03348101 		ld	s0,24(sp)
 893              		.cfi_restore 8
 894              		.cfi_def_cfa 2, 32
 895 02e4 13010102 		addi	sp,sp,32
 896              		.cfi_def_cfa_offset 0
 897 02e8 67800000 		jr	ra
 898              		.cfi_endproc
 899              	.LFE41:
 901              		.align	2
 902              		.globl	_Z9sem_closeP3Sem
 904              	_Z9sem_closeP3Sem:
 905              	.LFB42:
 122:src/syscall_c.cpp **** 
 123:src/syscall_c.cpp **** int sem_close(sem_t handle){
 906              		.loc 1 123 28 is_stmt 1
 907              		.cfi_startproc
 908              	.LVL70:
 909 02ec 130101FE 		addi	sp,sp,-32
 910              		.cfi_def_cfa_offset 32
 911 02f0 233C8100 		sd	s0,24(sp)
 912              		.cfi_offset 8, -8
 913 02f4 13040102 		addi	s0,sp,32
 914              		.cfi_def_cfa 8, 0
 124:src/syscall_c.cpp ****     Riscv::w_a1((uint64)handle);
 915              		.loc 1 124 5
 916              	.LVL71:
 917              	.LBB126:
 918              	.LBB127:
 234:src/../h/riscv.hpp **** }
 919              		.loc 2 234 5
 234:src/../h/riscv.hpp **** }
 920              		.loc 2 234 47 is_stmt 0
 921              	#APP
 922              	# 234 "src/../h/riscv.hpp" 1
 923              		mv a1, a0
 924              	# 0 "" 2
 925              	.LVL72:
 926              	#NO_APP
GAS LISTING /tmp/ccvvtIzg.s 			page 25


 927              	.LBE127:
 928              	.LBE126:
 125:src/syscall_c.cpp ****     Riscv::w_a0(0x22);
 929              		.loc 1 125 5 is_stmt 1
 930              	.LBB128:
 931              	.LBB129:
 224:src/../h/riscv.hpp **** }
 932              		.loc 2 224 5
 224:src/../h/riscv.hpp **** }
 933              		.loc 2 224 47 is_stmt 0
 934 02fc 93072002 		li	a5,34
 935              	#APP
 936              	# 224 "src/../h/riscv.hpp" 1
 937              		mv a0, a5
 938              	# 0 "" 2
 939              	.LVL73:
 940              	#NO_APP
 941              	.LBE129:
 942              	.LBE128:
 126:src/syscall_c.cpp ****     __asm__ volatile("ecall");
 943              		.loc 1 126 5 is_stmt 1
 944              		.loc 1 126 30 is_stmt 0
 945              	#APP
 946              	# 126 "src/syscall_c.cpp" 1
 127              	
 128:src/syscall_c.cpp ****     volatile uint64 a0;
 947              		ecall
 948              	# 0 "" 2
 949              		.loc 1 128 5 is_stmt 1
 129:src/syscall_c.cpp ****     __asm__ volatile ("mv %0, a0" : "=r"(a0));
 950              		.loc 1 129 5
 951              		.loc 1 129 46 is_stmt 0
 952              	# 129 "src/syscall_c.cpp" 1
 130              	    return a0;
 953              		mv a5, a0
 954              	# 0 "" 2
 955              	#NO_APP
 956 030c 2334F4FE 		sd	a5,-24(s0)
 957              		.loc 1 130 5 is_stmt 1
 958              		.loc 1 130 12 is_stmt 0
 959 0310 033584FE 		ld	a0,-24(s0)
 960              	.LVL74:
 131:src/syscall_c.cpp **** }
 961              		.loc 1 131 1
 962 0314 1B050500 		sext.w	a0,a0
 963 0318 03348101 		ld	s0,24(sp)
 964              		.cfi_restore 8
 965              		.cfi_def_cfa 2, 32
 966 031c 13010102 		addi	sp,sp,32
 967              		.cfi_def_cfa_offset 0
 968 0320 67800000 		jr	ra
 969              		.cfi_endproc
 970              	.LFE42:
 972              		.align	2
 973              		.globl	_Z8sem_waitP3Sem
 975              	_Z8sem_waitP3Sem:
 976              	.LFB43:
GAS LISTING /tmp/ccvvtIzg.s 			page 26


 132:src/syscall_c.cpp **** 
 133:src/syscall_c.cpp **** int sem_wait(sem_t id){
 977              		.loc 1 133 23 is_stmt 1
 978              		.cfi_startproc
 979              	.LVL75:
 980 0324 130101FE 		addi	sp,sp,-32
 981              		.cfi_def_cfa_offset 32
 982 0328 233C8100 		sd	s0,24(sp)
 983              		.cfi_offset 8, -8
 984 032c 13040102 		addi	s0,sp,32
 985              		.cfi_def_cfa 8, 0
 134:src/syscall_c.cpp ****     Riscv::w_a1((uint64)id);
 986              		.loc 1 134 5
 987              	.LVL76:
 988              	.LBB130:
 989              	.LBB131:
 234:src/../h/riscv.hpp **** }
 990              		.loc 2 234 5
 234:src/../h/riscv.hpp **** }
 991              		.loc 2 234 47 is_stmt 0
 992              	#APP
 993              	# 234 "src/../h/riscv.hpp" 1
 994              		mv a1, a0
 995              	# 0 "" 2
 996              	.LVL77:
 997              	#NO_APP
 998              	.LBE131:
 999              	.LBE130:
 135:src/syscall_c.cpp ****     Riscv::w_a0(0x23);
 1000              		.loc 1 135 5 is_stmt 1
 1001              	.LBB132:
 1002              	.LBB133:
 224:src/../h/riscv.hpp **** }
 1003              		.loc 2 224 5
 224:src/../h/riscv.hpp **** }
 1004              		.loc 2 224 47 is_stmt 0
 1005 0334 93073002 		li	a5,35
 1006              	#APP
 1007              	# 224 "src/../h/riscv.hpp" 1
 1008              		mv a0, a5
 1009              	# 0 "" 2
 1010              	.LVL78:
 1011              	#NO_APP
 1012              	.LBE133:
 1013              	.LBE132:
 136:src/syscall_c.cpp ****     __asm__ volatile("ecall");
 1014              		.loc 1 136 5 is_stmt 1
 1015              		.loc 1 136 30 is_stmt 0
 1016              	#APP
 1017              	# 136 "src/syscall_c.cpp" 1
 137              	
 138:src/syscall_c.cpp ****     volatile uint64 a0;
 1018              		ecall
 1019              	# 0 "" 2
 1020              		.loc 1 138 5 is_stmt 1
 139:src/syscall_c.cpp ****     __asm__ volatile ("mv %0, a0" : "=r"(a0));
 1021              		.loc 1 139 5
GAS LISTING /tmp/ccvvtIzg.s 			page 27


 1022              		.loc 1 139 46 is_stmt 0
 1023              	# 139 "src/syscall_c.cpp" 1
 140              	    return a0;
 1024              		mv a5, a0
 1025              	# 0 "" 2
 1026              	#NO_APP
 1027 0344 2334F4FE 		sd	a5,-24(s0)
 1028              		.loc 1 140 5 is_stmt 1
 1029              		.loc 1 140 12 is_stmt 0
 1030 0348 033584FE 		ld	a0,-24(s0)
 1031              	.LVL79:
 141:src/syscall_c.cpp **** }
 1032              		.loc 1 141 1
 1033 034c 1B050500 		sext.w	a0,a0
 1034 0350 03348101 		ld	s0,24(sp)
 1035              		.cfi_restore 8
 1036              		.cfi_def_cfa 2, 32
 1037 0354 13010102 		addi	sp,sp,32
 1038              		.cfi_def_cfa_offset 0
 1039 0358 67800000 		jr	ra
 1040              		.cfi_endproc
 1041              	.LFE43:
 1043              		.align	2
 1044              		.globl	_Z10sem_signalP3Sem
 1046              	_Z10sem_signalP3Sem:
 1047              	.LFB44:
 142:src/syscall_c.cpp **** 
 143:src/syscall_c.cpp **** int sem_signal(sem_t id){
 1048              		.loc 1 143 25 is_stmt 1
 1049              		.cfi_startproc
 1050              	.LVL80:
 1051 035c 130101FE 		addi	sp,sp,-32
 1052              		.cfi_def_cfa_offset 32
 1053 0360 233C8100 		sd	s0,24(sp)
 1054              		.cfi_offset 8, -8
 1055 0364 13040102 		addi	s0,sp,32
 1056              		.cfi_def_cfa 8, 0
 144:src/syscall_c.cpp ****     Riscv::w_a1((uint64)id);
 1057              		.loc 1 144 5
 1058              	.LVL81:
 1059              	.LBB134:
 1060              	.LBB135:
 234:src/../h/riscv.hpp **** }
 1061              		.loc 2 234 5
 234:src/../h/riscv.hpp **** }
 1062              		.loc 2 234 47 is_stmt 0
 1063              	#APP
 1064              	# 234 "src/../h/riscv.hpp" 1
 1065              		mv a1, a0
 1066              	# 0 "" 2
 1067              	.LVL82:
 1068              	#NO_APP
 1069              	.LBE135:
 1070              	.LBE134:
 145:src/syscall_c.cpp ****     Riscv::w_a0(0x24);
 1071              		.loc 1 145 5 is_stmt 1
 1072              	.LBB136:
GAS LISTING /tmp/ccvvtIzg.s 			page 28


 1073              	.LBB137:
 224:src/../h/riscv.hpp **** }
 1074              		.loc 2 224 5
 224:src/../h/riscv.hpp **** }
 1075              		.loc 2 224 47 is_stmt 0
 1076 036c 93074002 		li	a5,36
 1077              	#APP
 1078              	# 224 "src/../h/riscv.hpp" 1
 1079              		mv a0, a5
 1080              	# 0 "" 2
 1081              	.LVL83:
 1082              	#NO_APP
 1083              	.LBE137:
 1084              	.LBE136:
 146:src/syscall_c.cpp ****     __asm__ volatile("ecall");
 1085              		.loc 1 146 5 is_stmt 1
 1086              		.loc 1 146 30 is_stmt 0
 1087              	#APP
 1088              	# 146 "src/syscall_c.cpp" 1
 147              	
 148:src/syscall_c.cpp ****     volatile uint64 a0;
 1089              		ecall
 1090              	# 0 "" 2
 1091              		.loc 1 148 5 is_stmt 1
 149:src/syscall_c.cpp ****     __asm__ volatile ("mv %0, a0" : "=r"(a0));
 1092              		.loc 1 149 5
 1093              		.loc 1 149 46 is_stmt 0
 1094              	# 149 "src/syscall_c.cpp" 1
 150              	    return a0;
 1095              		mv a5, a0
 1096              	# 0 "" 2
 1097              	#NO_APP
 1098 037c 2334F4FE 		sd	a5,-24(s0)
 1099              		.loc 1 150 5 is_stmt 1
 1100              		.loc 1 150 12 is_stmt 0
 1101 0380 033584FE 		ld	a0,-24(s0)
 1102              	.LVL84:
 151:src/syscall_c.cpp **** }
 1103              		.loc 1 151 1
 1104 0384 1B050500 		sext.w	a0,a0
 1105 0388 03348101 		ld	s0,24(sp)
 1106              		.cfi_restore 8
 1107              		.cfi_def_cfa 2, 32
 1108 038c 13010102 		addi	sp,sp,32
 1109              		.cfi_def_cfa_offset 0
 1110 0390 67800000 		jr	ra
 1111              		.cfi_endproc
 1112              	.LFE44:
 1114              		.align	2
 1115              		.globl	_Z10time_sleepm
 1117              	_Z10time_sleepm:
 1118              	.LFB45:
 152:src/syscall_c.cpp **** 
 153:src/syscall_c.cpp **** int time_sleep(time_t t){
 1119              		.loc 1 153 25 is_stmt 1
 1120              		.cfi_startproc
 1121              	.LVL85:
GAS LISTING /tmp/ccvvtIzg.s 			page 29


 1122 0394 130101FF 		addi	sp,sp,-16
 1123              		.cfi_def_cfa_offset 16
 1124 0398 23348100 		sd	s0,8(sp)
 1125              		.cfi_offset 8, -8
 1126 039c 13040101 		addi	s0,sp,16
 1127              		.cfi_def_cfa 8, 0
 154:src/syscall_c.cpp ****     return 0;
 1128              		.loc 1 154 5
 155:src/syscall_c.cpp **** }
 1129              		.loc 1 155 1 is_stmt 0
 1130 03a0 13050000 		li	a0,0
 1131              	.LVL86:
 1132 03a4 03348100 		ld	s0,8(sp)
 1133              		.cfi_restore 8
 1134              		.cfi_def_cfa 2, 16
 1135 03a8 13010101 		addi	sp,sp,16
 1136              		.cfi_def_cfa_offset 0
 1137 03ac 67800000 		jr	ra
 1138              		.cfi_endproc
 1139              	.LFE45:
 1141              		.align	2
 1142              		.globl	_Z4getcv
 1144              	_Z4getcv:
 1145              	.LFB46:
 156:src/syscall_c.cpp **** 
 157:src/syscall_c.cpp **** char getc(){
 1146              		.loc 1 157 12 is_stmt 1
 1147              		.cfi_startproc
 1148 03b0 130101FE 		addi	sp,sp,-32
 1149              		.cfi_def_cfa_offset 32
 1150 03b4 233C8100 		sd	s0,24(sp)
 1151              		.cfi_offset 8, -8
 1152 03b8 13040102 		addi	s0,sp,32
 1153              		.cfi_def_cfa 8, 0
 158:src/syscall_c.cpp ****     Riscv::w_a0(0x41);
 1154              		.loc 1 158 5
 1155              	.LVL87:
 1156              	.LBB138:
 1157              	.LBB139:
 224:src/../h/riscv.hpp **** }
 1158              		.loc 2 224 5
 224:src/../h/riscv.hpp **** }
 1159              		.loc 2 224 47 is_stmt 0
 1160 03bc 93071004 		li	a5,65
 1161              	#APP
 1162              	# 224 "src/../h/riscv.hpp" 1
 1163              		mv a0, a5
 1164              	# 0 "" 2
 1165              	.LVL88:
 1166              	#NO_APP
 1167              	.LBE139:
 1168              	.LBE138:
 159:src/syscall_c.cpp ****     __asm__ volatile ("ecall");
 1169              		.loc 1 159 5 is_stmt 1
 1170              		.loc 1 159 31 is_stmt 0
 1171              	#APP
 1172              	# 159 "src/syscall_c.cpp" 1
GAS LISTING /tmp/ccvvtIzg.s 			page 30


 160              	
 161:src/syscall_c.cpp ****     volatile long a0;
 1173              		ecall
 1174              	# 0 "" 2
 1175              		.loc 1 161 5 is_stmt 1
 162:src/syscall_c.cpp ****     __asm__ volatile ("mv %0, a0" : "=r"(a0));
 1176              		.loc 1 162 5
 1177              		.loc 1 162 46 is_stmt 0
 1178              	# 162 "src/syscall_c.cpp" 1
 163              	    return (char)a0;
 1179              		mv a5, a0
 1180              	# 0 "" 2
 1181              	#NO_APP
 1182 03cc 2334F4FE 		sd	a5,-24(s0)
 1183              		.loc 1 163 5 is_stmt 1
 1184              		.loc 1 163 18 is_stmt 0
 1185 03d0 033584FE 		ld	a0,-24(s0)
 164:src/syscall_c.cpp **** }
 1186              		.loc 1 164 1
 1187 03d4 1375F50F 		andi	a0,a0,0xff
 1188 03d8 03348101 		ld	s0,24(sp)
 1189              		.cfi_restore 8
 1190              		.cfi_def_cfa 2, 32
 1191 03dc 13010102 		addi	sp,sp,32
 1192              		.cfi_def_cfa_offset 0
 1193 03e0 67800000 		jr	ra
 1194              		.cfi_endproc
 1195              	.LFE46:
 1197              		.align	2
 1198              		.globl	_Z4putcc
 1200              	_Z4putcc:
 1201              	.LFB47:
 165:src/syscall_c.cpp **** 
 166:src/syscall_c.cpp **** void putc(char c){
 1202              		.loc 1 166 18 is_stmt 1
 1203              		.cfi_startproc
 1204              	.LVL89:
 1205 03e4 130101FF 		addi	sp,sp,-16
 1206              		.cfi_def_cfa_offset 16
 1207 03e8 23348100 		sd	s0,8(sp)
 1208              		.cfi_offset 8, -8
 1209 03ec 13040101 		addi	s0,sp,16
 1210              		.cfi_def_cfa 8, 0
 167:src/syscall_c.cpp ****     Riscv::w_a1((uint64)c);
 1211              		.loc 1 167 5
 1212              	.LVL90:
 1213              	.LBB140:
 1214              	.LBB141:
 234:src/../h/riscv.hpp **** }
 1215              		.loc 2 234 5
 234:src/../h/riscv.hpp **** }
 1216              		.loc 2 234 47 is_stmt 0
 1217              	#APP
 1218              	# 234 "src/../h/riscv.hpp" 1
 1219              		mv a1, a0
 1220              	# 0 "" 2
 1221              	.LVL91:
GAS LISTING /tmp/ccvvtIzg.s 			page 31


 1222              	#NO_APP
 1223              	.LBE141:
 1224              	.LBE140:
 168:src/syscall_c.cpp ****     Riscv::w_a0(0x42);
 1225              		.loc 1 168 5 is_stmt 1
 1226              	.LBB142:
 1227              	.LBB143:
 224:src/../h/riscv.hpp **** }
 1228              		.loc 2 224 5
 224:src/../h/riscv.hpp **** }
 1229              		.loc 2 224 47 is_stmt 0
 1230 03f4 93072004 		li	a5,66
 1231              	#APP
 1232              	# 224 "src/../h/riscv.hpp" 1
 1233              		mv a0, a5
 1234              	# 0 "" 2
 1235              	.LVL92:
 1236              	#NO_APP
 1237              	.LBE143:
 1238              	.LBE142:
 169:src/syscall_c.cpp ****     __asm__ volatile ("ecall");
 1239              		.loc 1 169 5 is_stmt 1
 1240              		.loc 1 169 31 is_stmt 0
 1241              	#APP
 1242              	# 169 "src/syscall_c.cpp" 1
 170              	}
 1243              		ecall
 1244              	# 0 "" 2
 1245              		.loc 1 170 1
 1246              	#NO_APP
 1247 0400 03348100 		ld	s0,8(sp)
 1248              		.cfi_restore 8
 1249              		.cfi_def_cfa 2, 16
 1250 0404 13010101 		addi	sp,sp,16
 1251              		.cfi_def_cfa_offset 0
 1252 0408 67800000 		jr	ra
 1253              		.cfi_endproc
 1254              	.LFE47:
 1256              		.align	2
 1257              		.globl	_Z10changeUserv
 1259              	_Z10changeUserv:
 1260              	.LFB48:
 171:src/syscall_c.cpp **** 
 172:src/syscall_c.cpp **** void changeUser() {
 1261              		.loc 1 172 19 is_stmt 1
 1262              		.cfi_startproc
 1263 040c 130101FF 		addi	sp,sp,-16
 1264              		.cfi_def_cfa_offset 16
 1265 0410 23348100 		sd	s0,8(sp)
 1266              		.cfi_offset 8, -8
 1267 0414 13040101 		addi	s0,sp,16
 1268              		.cfi_def_cfa 8, 0
 173:src/syscall_c.cpp ****     Riscv::w_a0(0x25);
 1269              		.loc 1 173 5
 1270              	.LVL93:
 1271              	.LBB144:
 1272              	.LBB145:
GAS LISTING /tmp/ccvvtIzg.s 			page 32


 224:src/../h/riscv.hpp **** }
 1273              		.loc 2 224 5
 224:src/../h/riscv.hpp **** }
 1274              		.loc 2 224 47 is_stmt 0
 1275 0418 93075002 		li	a5,37
 1276              	#APP
 1277              	# 224 "src/../h/riscv.hpp" 1
 1278              		mv a0, a5
 1279              	# 0 "" 2
 1280              	.LVL94:
 1281              	#NO_APP
 1282              	.LBE145:
 1283              	.LBE144:
 174:src/syscall_c.cpp ****     __asm__ volatile("ecall");
 1284              		.loc 1 174 5 is_stmt 1
 1285              		.loc 1 174 30 is_stmt 0
 1286              	#APP
 1287              	# 174 "src/syscall_c.cpp" 1
 175              	    return;
 1288              		ecall
 1289              	# 0 "" 2
 1290              		.loc 1 175 5 is_stmt 1
 176:src/syscall_c.cpp **** }
 1291              		.loc 1 176 1 is_stmt 0
 1292              	#NO_APP
 1293 0424 03348100 		ld	s0,8(sp)
 1294              		.cfi_restore 8
 1295              		.cfi_def_cfa 2, 16
 1296 0428 13010101 		addi	sp,sp,16
 1297              		.cfi_def_cfa_offset 0
 1298 042c 67800000 		jr	ra
 1299              		.cfi_endproc
 1300              	.LFE48:
 1302              	.Letext0:
 1303              		.file 3 "src/../h/../lib/hw.h"
 1304              		.file 4 "src/../h/syscall_c.hpp"
GAS LISTING /tmp/ccvvtIzg.s 			page 33


DEFINED SYMBOLS
                            *ABS*:0000000000000000 syscall_c.cpp
     /tmp/ccvvtIzg.s:9      .text:0000000000000000 _Z9mem_allocm
     /tmp/ccvvtIzg.s:13     .text:0000000000000000 .L0 
     /tmp/ccvvtIzg.s:15     .text:0000000000000000 .L0 
     /tmp/ccvvtIzg.s:16     .text:0000000000000004 .L0 
     /tmp/ccvvtIzg.s:18     .text:0000000000000008 .L0 
     /tmp/ccvvtIzg.s:20     .text:000000000000000c .L0 
     /tmp/ccvvtIzg.s:26     .text:000000000000000c .L0 
     /tmp/ccvvtIzg.s:27     .text:000000000000000c .L0 
  src/../h/riscv.hpp:234    .text:000000000000000c .L0 
     /tmp/ccvvtIzg.s:39     .text:0000000000000010 .L0 
     /tmp/ccvvtIzg.s:40     .text:0000000000000010 .L0 
     /tmp/ccvvtIzg.s:41     .text:0000000000000010 .L0 
     /tmp/ccvvtIzg.s:51     .text:0000000000000018 .L0 
   src/syscall_c.cpp:10     .text:0000000000000018 .L0 
     /tmp/ccvvtIzg.s:57     .text:000000000000001c .L0 
     /tmp/ccvvtIzg.s:58     .text:000000000000001c .L0 
   src/syscall_c.cpp:13     .text:000000000000001c .L0 
     /tmp/ccvvtIzg.s:65     .text:0000000000000024 .L0 
     /tmp/ccvvtIzg.s:66     .text:0000000000000024 .L0 
     /tmp/ccvvtIzg.s:69     .text:0000000000000028 .L0 
     /tmp/ccvvtIzg.s:70     .text:000000000000002c .L0 
     /tmp/ccvvtIzg.s:71     .text:000000000000002c .L0 
     /tmp/ccvvtIzg.s:73     .text:0000000000000030 .L0 
     /tmp/ccvvtIzg.s:75     .text:0000000000000034 .L0 
     /tmp/ccvvtIzg.s:81     .text:0000000000000034 _Z8mem_freePv
     /tmp/ccvvtIzg.s:84     .text:0000000000000034 .L0 
     /tmp/ccvvtIzg.s:86     .text:0000000000000034 .L0 
     /tmp/ccvvtIzg.s:87     .text:0000000000000038 .L0 
     /tmp/ccvvtIzg.s:89     .text:000000000000003c .L0 
     /tmp/ccvvtIzg.s:91     .text:0000000000000040 .L0 
     /tmp/ccvvtIzg.s:96     .text:0000000000000040 .L0 
     /tmp/ccvvtIzg.s:97     .text:0000000000000040 .L0 
  src/../h/riscv.hpp:234    .text:0000000000000040 .L0 
     /tmp/ccvvtIzg.s:109    .text:0000000000000044 .L0 
     /tmp/ccvvtIzg.s:110    .text:0000000000000044 .L0 
     /tmp/ccvvtIzg.s:111    .text:0000000000000044 .L0 
     /tmp/ccvvtIzg.s:121    .text:000000000000004c .L0 
   src/syscall_c.cpp:20     .text:000000000000004c .L0 
     /tmp/ccvvtIzg.s:127    .text:0000000000000050 .L0 
     /tmp/ccvvtIzg.s:128    .text:0000000000000050 .L0 
   src/syscall_c.cpp:23     .text:0000000000000050 .L0 
     /tmp/ccvvtIzg.s:135    .text:0000000000000058 .L0 
     /tmp/ccvvtIzg.s:136    .text:0000000000000058 .L0 
     /tmp/ccvvtIzg.s:139    .text:000000000000005c .L0 
     /tmp/ccvvtIzg.s:141    .text:0000000000000064 .L0 
     /tmp/ccvvtIzg.s:142    .text:0000000000000064 .L0 
     /tmp/ccvvtIzg.s:144    .text:0000000000000068 .L0 
     /tmp/ccvvtIzg.s:146    .text:000000000000006c .L0 
     /tmp/ccvvtIzg.s:152    .text:000000000000006c _Z13thread_createPP3PCBPFvPvES2_
     /tmp/ccvvtIzg.s:155    .text:000000000000006c .L0 
     /tmp/ccvvtIzg.s:157    .text:000000000000006c .L0 
     /tmp/ccvvtIzg.s:158    .text:0000000000000070 .L0 
     /tmp/ccvvtIzg.s:164    .text:0000000000000084 .L0 
     /tmp/ccvvtIzg.s:165    .text:0000000000000084 .L0 
     /tmp/ccvvtIzg.s:166    .text:0000000000000084 .L0 
GAS LISTING /tmp/ccvvtIzg.s 			page 34


     /tmp/ccvvtIzg.s:167    .text:0000000000000084 .L0 
     /tmp/ccvvtIzg.s:168    .text:0000000000000084 .L0 
     /tmp/ccvvtIzg.s:170    .text:0000000000000088 .L0 
     /tmp/ccvvtIzg.s:175    .text:0000000000000094 .L0 
     /tmp/ccvvtIzg.s:176    .text:0000000000000094 .L0 
     /tmp/ccvvtIzg.s:178    .text:0000000000000098 .L0 
     /tmp/ccvvtIzg.s:179    .text:0000000000000098 .L0 
     /tmp/ccvvtIzg.s:184    .text:00000000000000a4 .L0 
     /tmp/ccvvtIzg.s:190    .text:00000000000000a8 .L0 
     /tmp/ccvvtIzg.s:191    .text:00000000000000a8 .L0 
  src/../h/riscv.hpp:284    .text:00000000000000a8 .L0 
     /tmp/ccvvtIzg.s:203    .text:00000000000000ac .L0 
     /tmp/ccvvtIzg.s:204    .text:00000000000000ac .L0 
  src/../h/riscv.hpp:274    .text:00000000000000ac .L0 
     /tmp/ccvvtIzg.s:216    .text:00000000000000b0 .L0 
     /tmp/ccvvtIzg.s:217    .text:00000000000000b0 .L0 
  src/../h/riscv.hpp:244    .text:00000000000000b0 .L0 
     /tmp/ccvvtIzg.s:229    .text:00000000000000b4 .L0 
     /tmp/ccvvtIzg.s:230    .text:00000000000000b4 .L0 
  src/../h/riscv.hpp:234    .text:00000000000000b4 .L0 
     /tmp/ccvvtIzg.s:242    .text:00000000000000b8 .L0 
     /tmp/ccvvtIzg.s:243    .text:00000000000000b8 .L0 
     /tmp/ccvvtIzg.s:244    .text:00000000000000b8 .L0 
     /tmp/ccvvtIzg.s:254    .text:00000000000000c0 .L0 
   src/syscall_c.cpp:40     .text:00000000000000c0 .L0 
     /tmp/ccvvtIzg.s:260    .text:00000000000000c4 .L0 
     /tmp/ccvvtIzg.s:261    .text:00000000000000c4 .L0 
   src/syscall_c.cpp:43     .text:00000000000000c4 .L0 
     /tmp/ccvvtIzg.s:268    .text:00000000000000cc .L0 
     /tmp/ccvvtIzg.s:269    .text:00000000000000cc .L0 
     /tmp/ccvvtIzg.s:274    .text:00000000000000d4 .L0 
     /tmp/ccvvtIzg.s:275    .text:00000000000000d8 .L0 
     /tmp/ccvvtIzg.s:276    .text:00000000000000d8 .L0 
     /tmp/ccvvtIzg.s:278    .text:00000000000000dc .L0 
     /tmp/ccvvtIzg.s:279    .text:00000000000000dc .L0 
     /tmp/ccvvtIzg.s:281    .text:00000000000000e0 .L0 
     /tmp/ccvvtIzg.s:284    .text:00000000000000e4 .L0 
     /tmp/ccvvtIzg.s:287    .text:00000000000000e8 .L0 
     /tmp/ccvvtIzg.s:290    .text:00000000000000ec .L0 
     /tmp/ccvvtIzg.s:294    .text:00000000000000f0 .L0 
     /tmp/ccvvtIzg.s:296    .text:00000000000000f0 .L0 
     /tmp/ccvvtIzg.s:302    .text:00000000000000f8 .L0 
     /tmp/ccvvtIzg.s:305    .text:0000000000000100 .L0 
     /tmp/ccvvtIzg.s:311    .text:0000000000000100 _Z14_thread_createPP3PCBPFvPvES2_
     /tmp/ccvvtIzg.s:314    .text:0000000000000100 .L0 
     /tmp/ccvvtIzg.s:316    .text:0000000000000100 .L0 
     /tmp/ccvvtIzg.s:317    .text:0000000000000104 .L0 
     /tmp/ccvvtIzg.s:323    .text:0000000000000118 .L0 
     /tmp/ccvvtIzg.s:324    .text:0000000000000118 .L0 
     /tmp/ccvvtIzg.s:325    .text:0000000000000118 .L0 
     /tmp/ccvvtIzg.s:326    .text:0000000000000118 .L0 
     /tmp/ccvvtIzg.s:327    .text:0000000000000118 .L0 
     /tmp/ccvvtIzg.s:329    .text:000000000000011c .L0 
     /tmp/ccvvtIzg.s:334    .text:0000000000000128 .L0 
     /tmp/ccvvtIzg.s:335    .text:0000000000000128 .L0 
     /tmp/ccvvtIzg.s:337    .text:000000000000012c .L0 
     /tmp/ccvvtIzg.s:338    .text:000000000000012c .L0 
GAS LISTING /tmp/ccvvtIzg.s 			page 35


     /tmp/ccvvtIzg.s:343    .text:0000000000000138 .L0 
     /tmp/ccvvtIzg.s:349    .text:000000000000013c .L0 
     /tmp/ccvvtIzg.s:350    .text:000000000000013c .L0 
  src/../h/riscv.hpp:284    .text:000000000000013c .L0 
     /tmp/ccvvtIzg.s:362    .text:0000000000000140 .L0 
     /tmp/ccvvtIzg.s:363    .text:0000000000000140 .L0 
  src/../h/riscv.hpp:274    .text:0000000000000140 .L0 
     /tmp/ccvvtIzg.s:375    .text:0000000000000144 .L0 
     /tmp/ccvvtIzg.s:376    .text:0000000000000144 .L0 
  src/../h/riscv.hpp:244    .text:0000000000000144 .L0 
     /tmp/ccvvtIzg.s:388    .text:0000000000000148 .L0 
     /tmp/ccvvtIzg.s:389    .text:0000000000000148 .L0 
  src/../h/riscv.hpp:234    .text:0000000000000148 .L0 
     /tmp/ccvvtIzg.s:401    .text:000000000000014c .L0 
     /tmp/ccvvtIzg.s:402    .text:000000000000014c .L0 
     /tmp/ccvvtIzg.s:403    .text:000000000000014c .L0 
     /tmp/ccvvtIzg.s:413    .text:0000000000000154 .L0 
   src/syscall_c.cpp:60     .text:0000000000000154 .L0 
     /tmp/ccvvtIzg.s:419    .text:0000000000000158 .L0 
     /tmp/ccvvtIzg.s:420    .text:0000000000000158 .L0 
   src/syscall_c.cpp:63     .text:0000000000000158 .L0 
     /tmp/ccvvtIzg.s:427    .text:0000000000000160 .L0 
     /tmp/ccvvtIzg.s:428    .text:0000000000000160 .L0 
     /tmp/ccvvtIzg.s:433    .text:0000000000000168 .L0 
     /tmp/ccvvtIzg.s:434    .text:000000000000016c .L0 
     /tmp/ccvvtIzg.s:435    .text:000000000000016c .L0 
     /tmp/ccvvtIzg.s:437    .text:0000000000000170 .L0 
     /tmp/ccvvtIzg.s:438    .text:0000000000000170 .L0 
     /tmp/ccvvtIzg.s:440    .text:0000000000000174 .L0 
     /tmp/ccvvtIzg.s:443    .text:0000000000000178 .L0 
     /tmp/ccvvtIzg.s:446    .text:000000000000017c .L0 
     /tmp/ccvvtIzg.s:449    .text:0000000000000180 .L0 
     /tmp/ccvvtIzg.s:453    .text:0000000000000184 .L0 
     /tmp/ccvvtIzg.s:455    .text:0000000000000184 .L0 
     /tmp/ccvvtIzg.s:461    .text:000000000000018c .L0 
     /tmp/ccvvtIzg.s:464    .text:0000000000000194 .L0 
     /tmp/ccvvtIzg.s:470    .text:0000000000000194 _Z11thread_exitv
     /tmp/ccvvtIzg.s:473    .text:0000000000000194 .L0 
     /tmp/ccvvtIzg.s:474    .text:0000000000000194 .L0 
     /tmp/ccvvtIzg.s:475    .text:0000000000000198 .L0 
     /tmp/ccvvtIzg.s:477    .text:000000000000019c .L0 
     /tmp/ccvvtIzg.s:479    .text:00000000000001a0 .L0 
     /tmp/ccvvtIzg.s:484    .text:00000000000001a0 .L0 
     /tmp/ccvvtIzg.s:485    .text:00000000000001a0 .L0 
     /tmp/ccvvtIzg.s:486    .text:00000000000001a0 .L0 
     /tmp/ccvvtIzg.s:496    .text:00000000000001a8 .L0 
   src/syscall_c.cpp:69     .text:00000000000001a8 .L0 
     /tmp/ccvvtIzg.s:502    .text:00000000000001ac .L0 
     /tmp/ccvvtIzg.s:503    .text:00000000000001ac .L0 
   src/syscall_c.cpp:72     .text:00000000000001ac .L0 
     /tmp/ccvvtIzg.s:510    .text:00000000000001b4 .L0 
     /tmp/ccvvtIzg.s:511    .text:00000000000001b4 .L0 
     /tmp/ccvvtIzg.s:513    .text:00000000000001b8 .L0 
     /tmp/ccvvtIzg.s:515    .text:00000000000001c0 .L0 
     /tmp/ccvvtIzg.s:516    .text:00000000000001c0 .L0 
     /tmp/ccvvtIzg.s:518    .text:00000000000001c4 .L0 
     /tmp/ccvvtIzg.s:520    .text:00000000000001c8 .L0 
GAS LISTING /tmp/ccvvtIzg.s 			page 36


     /tmp/ccvvtIzg.s:526    .text:00000000000001c8 _Z15thread_dispatchv
     /tmp/ccvvtIzg.s:529    .text:00000000000001c8 .L0 
     /tmp/ccvvtIzg.s:530    .text:00000000000001c8 .L0 
     /tmp/ccvvtIzg.s:531    .text:00000000000001cc .L0 
     /tmp/ccvvtIzg.s:533    .text:00000000000001d0 .L0 
     /tmp/ccvvtIzg.s:535    .text:00000000000001d4 .L0 
     /tmp/ccvvtIzg.s:540    .text:00000000000001d4 .L0 
     /tmp/ccvvtIzg.s:541    .text:00000000000001d4 .L0 
     /tmp/ccvvtIzg.s:542    .text:00000000000001d4 .L0 
     /tmp/ccvvtIzg.s:552    .text:00000000000001dc .L0 
   src/syscall_c.cpp:78     .text:00000000000001dc .L0 
     /tmp/ccvvtIzg.s:559    .text:00000000000001e0 .L0 
     /tmp/ccvvtIzg.s:560    .text:00000000000001e4 .L0 
     /tmp/ccvvtIzg.s:561    .text:00000000000001e4 .L0 
     /tmp/ccvvtIzg.s:563    .text:00000000000001e8 .L0 
     /tmp/ccvvtIzg.s:565    .text:00000000000001ec .L0 
     /tmp/ccvvtIzg.s:571    .text:00000000000001ec _Z11thread_joinP3PCB
     /tmp/ccvvtIzg.s:574    .text:00000000000001ec .L0 
     /tmp/ccvvtIzg.s:576    .text:00000000000001ec .L0 
     /tmp/ccvvtIzg.s:577    .text:00000000000001f0 .L0 
     /tmp/ccvvtIzg.s:579    .text:00000000000001f4 .L0 
     /tmp/ccvvtIzg.s:581    .text:00000000000001f8 .L0 
     /tmp/ccvvtIzg.s:586    .text:00000000000001f8 .L0 
     /tmp/ccvvtIzg.s:587    .text:00000000000001f8 .L0 
  src/../h/riscv.hpp:234    .text:00000000000001f8 .L0 
     /tmp/ccvvtIzg.s:599    .text:00000000000001fc .L0 
     /tmp/ccvvtIzg.s:600    .text:00000000000001fc .L0 
     /tmp/ccvvtIzg.s:601    .text:00000000000001fc .L0 
     /tmp/ccvvtIzg.s:611    .text:0000000000000204 .L0 
   src/syscall_c.cpp:84     .text:0000000000000204 .L0 
     /tmp/ccvvtIzg.s:618    .text:0000000000000208 .L0 
     /tmp/ccvvtIzg.s:619    .text:000000000000020c .L0 
     /tmp/ccvvtIzg.s:620    .text:000000000000020c .L0 
     /tmp/ccvvtIzg.s:622    .text:0000000000000210 .L0 
     /tmp/ccvvtIzg.s:624    .text:0000000000000214 .L0 
     /tmp/ccvvtIzg.s:630    .text:0000000000000214 _Z12thread_startP3PCB
     /tmp/ccvvtIzg.s:633    .text:0000000000000214 .L0 
     /tmp/ccvvtIzg.s:635    .text:0000000000000214 .L0 
     /tmp/ccvvtIzg.s:636    .text:0000000000000218 .L0 
     /tmp/ccvvtIzg.s:638    .text:000000000000021c .L0 
     /tmp/ccvvtIzg.s:640    .text:0000000000000220 .L0 
     /tmp/ccvvtIzg.s:645    .text:0000000000000220 .L0 
     /tmp/ccvvtIzg.s:646    .text:0000000000000220 .L0 
  src/../h/riscv.hpp:234    .text:0000000000000220 .L0 
     /tmp/ccvvtIzg.s:658    .text:0000000000000224 .L0 
     /tmp/ccvvtIzg.s:659    .text:0000000000000224 .L0 
     /tmp/ccvvtIzg.s:660    .text:0000000000000224 .L0 
     /tmp/ccvvtIzg.s:670    .text:000000000000022c .L0 
   src/syscall_c.cpp:90     .text:000000000000022c .L0 
     /tmp/ccvvtIzg.s:676    .text:0000000000000230 .L0 
     /tmp/ccvvtIzg.s:677    .text:0000000000000230 .L0 
   src/syscall_c.cpp:93     .text:0000000000000230 .L0 
     /tmp/ccvvtIzg.s:684    .text:0000000000000238 .L0 
     /tmp/ccvvtIzg.s:685    .text:0000000000000238 .L0 
     /tmp/ccvvtIzg.s:688    .text:000000000000023c .L0 
     /tmp/ccvvtIzg.s:690    .text:0000000000000244 .L0 
     /tmp/ccvvtIzg.s:691    .text:0000000000000244 .L0 
GAS LISTING /tmp/ccvvtIzg.s 			page 37


     /tmp/ccvvtIzg.s:693    .text:0000000000000248 .L0 
     /tmp/ccvvtIzg.s:695    .text:000000000000024c .L0 
     /tmp/ccvvtIzg.s:701    .text:000000000000024c _Z4pingP3PCB
     /tmp/ccvvtIzg.s:704    .text:000000000000024c .L0 
     /tmp/ccvvtIzg.s:706    .text:000000000000024c .L0 
     /tmp/ccvvtIzg.s:707    .text:0000000000000250 .L0 
     /tmp/ccvvtIzg.s:709    .text:0000000000000254 .L0 
     /tmp/ccvvtIzg.s:711    .text:0000000000000258 .L0 
     /tmp/ccvvtIzg.s:716    .text:0000000000000258 .L0 
     /tmp/ccvvtIzg.s:717    .text:0000000000000258 .L0 
  src/../h/riscv.hpp:234    .text:0000000000000258 .L0 
     /tmp/ccvvtIzg.s:729    .text:000000000000025c .L0 
     /tmp/ccvvtIzg.s:730    .text:000000000000025c .L0 
     /tmp/ccvvtIzg.s:731    .text:000000000000025c .L0 
     /tmp/ccvvtIzg.s:741    .text:0000000000000264 .L0 
   src/syscall_c.cpp:100    .text:0000000000000264 .L0 
     /tmp/ccvvtIzg.s:748    .text:0000000000000268 .L0 
     /tmp/ccvvtIzg.s:749    .text:000000000000026c .L0 
     /tmp/ccvvtIzg.s:750    .text:000000000000026c .L0 
     /tmp/ccvvtIzg.s:752    .text:0000000000000270 .L0 
     /tmp/ccvvtIzg.s:754    .text:0000000000000274 .L0 
     /tmp/ccvvtIzg.s:760    .text:0000000000000274 _Z13get_thread_idv
     /tmp/ccvvtIzg.s:763    .text:0000000000000274 .L0 
     /tmp/ccvvtIzg.s:764    .text:0000000000000274 .L0 
     /tmp/ccvvtIzg.s:765    .text:0000000000000278 .L0 
     /tmp/ccvvtIzg.s:767    .text:000000000000027c .L0 
     /tmp/ccvvtIzg.s:769    .text:0000000000000280 .L0 
     /tmp/ccvvtIzg.s:774    .text:0000000000000280 .L0 
     /tmp/ccvvtIzg.s:775    .text:0000000000000280 .L0 
     /tmp/ccvvtIzg.s:776    .text:0000000000000280 .L0 
     /tmp/ccvvtIzg.s:786    .text:0000000000000288 .L0 
   src/syscall_c.cpp:105    .text:0000000000000288 .L0 
     /tmp/ccvvtIzg.s:792    .text:000000000000028c .L0 
     /tmp/ccvvtIzg.s:793    .text:000000000000028c .L0 
   src/syscall_c.cpp:108    .text:000000000000028c .L0 
     /tmp/ccvvtIzg.s:800    .text:0000000000000294 .L0 
     /tmp/ccvvtIzg.s:801    .text:0000000000000294 .L0 
     /tmp/ccvvtIzg.s:803    .text:0000000000000298 .L0 
     /tmp/ccvvtIzg.s:805    .text:00000000000002a0 .L0 
     /tmp/ccvvtIzg.s:806    .text:00000000000002a0 .L0 
     /tmp/ccvvtIzg.s:808    .text:00000000000002a4 .L0 
     /tmp/ccvvtIzg.s:810    .text:00000000000002a8 .L0 
     /tmp/ccvvtIzg.s:816    .text:00000000000002a8 _Z8sem_openPP3Semj
     /tmp/ccvvtIzg.s:819    .text:00000000000002a8 .L0 
     /tmp/ccvvtIzg.s:821    .text:00000000000002a8 .L0 
     /tmp/ccvvtIzg.s:822    .text:00000000000002ac .L0 
     /tmp/ccvvtIzg.s:824    .text:00000000000002b0 .L0 
     /tmp/ccvvtIzg.s:826    .text:00000000000002b4 .L0 
     /tmp/ccvvtIzg.s:828    .text:00000000000002b4 .L0 
     /tmp/ccvvtIzg.s:829    .text:00000000000002b4 .L0 
     /tmp/ccvvtIzg.s:836    .text:00000000000002bc .L0 
  src/../h/riscv.hpp:244    .text:00000000000002bc .L0 
     /tmp/ccvvtIzg.s:848    .text:00000000000002c0 .L0 
     /tmp/ccvvtIzg.s:849    .text:00000000000002c0 .L0 
  src/../h/riscv.hpp:234    .text:00000000000002c0 .L0 
     /tmp/ccvvtIzg.s:861    .text:00000000000002c4 .L0 
     /tmp/ccvvtIzg.s:862    .text:00000000000002c4 .L0 
GAS LISTING /tmp/ccvvtIzg.s 			page 38


     /tmp/ccvvtIzg.s:863    .text:00000000000002c4 .L0 
     /tmp/ccvvtIzg.s:873    .text:00000000000002cc .L0 
   src/syscall_c.cpp:116    .text:00000000000002cc .L0 
     /tmp/ccvvtIzg.s:879    .text:00000000000002d0 .L0 
     /tmp/ccvvtIzg.s:880    .text:00000000000002d0 .L0 
   src/syscall_c.cpp:119    .text:00000000000002d0 .L0 
     /tmp/ccvvtIzg.s:887    .text:00000000000002d8 .L0 
     /tmp/ccvvtIzg.s:888    .text:00000000000002d8 .L0 
     /tmp/ccvvtIzg.s:891    .text:00000000000002dc .L0 
     /tmp/ccvvtIzg.s:893    .text:00000000000002e4 .L0 
     /tmp/ccvvtIzg.s:894    .text:00000000000002e4 .L0 
     /tmp/ccvvtIzg.s:896    .text:00000000000002e8 .L0 
     /tmp/ccvvtIzg.s:898    .text:00000000000002ec .L0 
     /tmp/ccvvtIzg.s:904    .text:00000000000002ec _Z9sem_closeP3Sem
     /tmp/ccvvtIzg.s:907    .text:00000000000002ec .L0 
     /tmp/ccvvtIzg.s:909    .text:00000000000002ec .L0 
     /tmp/ccvvtIzg.s:910    .text:00000000000002f0 .L0 
     /tmp/ccvvtIzg.s:912    .text:00000000000002f4 .L0 
     /tmp/ccvvtIzg.s:914    .text:00000000000002f8 .L0 
     /tmp/ccvvtIzg.s:919    .text:00000000000002f8 .L0 
     /tmp/ccvvtIzg.s:920    .text:00000000000002f8 .L0 
  src/../h/riscv.hpp:234    .text:00000000000002f8 .L0 
     /tmp/ccvvtIzg.s:932    .text:00000000000002fc .L0 
     /tmp/ccvvtIzg.s:933    .text:00000000000002fc .L0 
     /tmp/ccvvtIzg.s:934    .text:00000000000002fc .L0 
     /tmp/ccvvtIzg.s:944    .text:0000000000000304 .L0 
   src/syscall_c.cpp:126    .text:0000000000000304 .L0 
     /tmp/ccvvtIzg.s:950    .text:0000000000000308 .L0 
     /tmp/ccvvtIzg.s:951    .text:0000000000000308 .L0 
   src/syscall_c.cpp:129    .text:0000000000000308 .L0 
     /tmp/ccvvtIzg.s:958    .text:0000000000000310 .L0 
     /tmp/ccvvtIzg.s:959    .text:0000000000000310 .L0 
     /tmp/ccvvtIzg.s:962    .text:0000000000000314 .L0 
     /tmp/ccvvtIzg.s:964    .text:000000000000031c .L0 
     /tmp/ccvvtIzg.s:965    .text:000000000000031c .L0 
     /tmp/ccvvtIzg.s:967    .text:0000000000000320 .L0 
     /tmp/ccvvtIzg.s:969    .text:0000000000000324 .L0 
     /tmp/ccvvtIzg.s:975    .text:0000000000000324 _Z8sem_waitP3Sem
     /tmp/ccvvtIzg.s:978    .text:0000000000000324 .L0 
     /tmp/ccvvtIzg.s:980    .text:0000000000000324 .L0 
     /tmp/ccvvtIzg.s:981    .text:0000000000000328 .L0 
     /tmp/ccvvtIzg.s:983    .text:000000000000032c .L0 
     /tmp/ccvvtIzg.s:985    .text:0000000000000330 .L0 
     /tmp/ccvvtIzg.s:990    .text:0000000000000330 .L0 
     /tmp/ccvvtIzg.s:991    .text:0000000000000330 .L0 
  src/../h/riscv.hpp:234    .text:0000000000000330 .L0 
     /tmp/ccvvtIzg.s:1003   .text:0000000000000334 .L0 
     /tmp/ccvvtIzg.s:1004   .text:0000000000000334 .L0 
     /tmp/ccvvtIzg.s:1005   .text:0000000000000334 .L0 
     /tmp/ccvvtIzg.s:1015   .text:000000000000033c .L0 
   src/syscall_c.cpp:136    .text:000000000000033c .L0 
     /tmp/ccvvtIzg.s:1021   .text:0000000000000340 .L0 
     /tmp/ccvvtIzg.s:1022   .text:0000000000000340 .L0 
   src/syscall_c.cpp:139    .text:0000000000000340 .L0 
     /tmp/ccvvtIzg.s:1029   .text:0000000000000348 .L0 
     /tmp/ccvvtIzg.s:1030   .text:0000000000000348 .L0 
     /tmp/ccvvtIzg.s:1033   .text:000000000000034c .L0 
GAS LISTING /tmp/ccvvtIzg.s 			page 39


     /tmp/ccvvtIzg.s:1035   .text:0000000000000354 .L0 
     /tmp/ccvvtIzg.s:1036   .text:0000000000000354 .L0 
     /tmp/ccvvtIzg.s:1038   .text:0000000000000358 .L0 
     /tmp/ccvvtIzg.s:1040   .text:000000000000035c .L0 
     /tmp/ccvvtIzg.s:1046   .text:000000000000035c _Z10sem_signalP3Sem
     /tmp/ccvvtIzg.s:1049   .text:000000000000035c .L0 
     /tmp/ccvvtIzg.s:1051   .text:000000000000035c .L0 
     /tmp/ccvvtIzg.s:1052   .text:0000000000000360 .L0 
     /tmp/ccvvtIzg.s:1054   .text:0000000000000364 .L0 
     /tmp/ccvvtIzg.s:1056   .text:0000000000000368 .L0 
     /tmp/ccvvtIzg.s:1061   .text:0000000000000368 .L0 
     /tmp/ccvvtIzg.s:1062   .text:0000000000000368 .L0 
  src/../h/riscv.hpp:234    .text:0000000000000368 .L0 
     /tmp/ccvvtIzg.s:1074   .text:000000000000036c .L0 
     /tmp/ccvvtIzg.s:1075   .text:000000000000036c .L0 
     /tmp/ccvvtIzg.s:1076   .text:000000000000036c .L0 
     /tmp/ccvvtIzg.s:1086   .text:0000000000000374 .L0 
   src/syscall_c.cpp:146    .text:0000000000000374 .L0 
     /tmp/ccvvtIzg.s:1092   .text:0000000000000378 .L0 
     /tmp/ccvvtIzg.s:1093   .text:0000000000000378 .L0 
   src/syscall_c.cpp:149    .text:0000000000000378 .L0 
     /tmp/ccvvtIzg.s:1100   .text:0000000000000380 .L0 
     /tmp/ccvvtIzg.s:1101   .text:0000000000000380 .L0 
     /tmp/ccvvtIzg.s:1104   .text:0000000000000384 .L0 
     /tmp/ccvvtIzg.s:1106   .text:000000000000038c .L0 
     /tmp/ccvvtIzg.s:1107   .text:000000000000038c .L0 
     /tmp/ccvvtIzg.s:1109   .text:0000000000000390 .L0 
     /tmp/ccvvtIzg.s:1111   .text:0000000000000394 .L0 
     /tmp/ccvvtIzg.s:1117   .text:0000000000000394 _Z10time_sleepm
     /tmp/ccvvtIzg.s:1120   .text:0000000000000394 .L0 
     /tmp/ccvvtIzg.s:1122   .text:0000000000000394 .L0 
     /tmp/ccvvtIzg.s:1123   .text:0000000000000398 .L0 
     /tmp/ccvvtIzg.s:1125   .text:000000000000039c .L0 
     /tmp/ccvvtIzg.s:1127   .text:00000000000003a0 .L0 
     /tmp/ccvvtIzg.s:1129   .text:00000000000003a0 .L0 
     /tmp/ccvvtIzg.s:1130   .text:00000000000003a0 .L0 
     /tmp/ccvvtIzg.s:1133   .text:00000000000003a8 .L0 
     /tmp/ccvvtIzg.s:1134   .text:00000000000003a8 .L0 
     /tmp/ccvvtIzg.s:1136   .text:00000000000003ac .L0 
     /tmp/ccvvtIzg.s:1138   .text:00000000000003b0 .L0 
     /tmp/ccvvtIzg.s:1144   .text:00000000000003b0 _Z4getcv
     /tmp/ccvvtIzg.s:1147   .text:00000000000003b0 .L0 
     /tmp/ccvvtIzg.s:1148   .text:00000000000003b0 .L0 
     /tmp/ccvvtIzg.s:1149   .text:00000000000003b4 .L0 
     /tmp/ccvvtIzg.s:1151   .text:00000000000003b8 .L0 
     /tmp/ccvvtIzg.s:1153   .text:00000000000003bc .L0 
     /tmp/ccvvtIzg.s:1158   .text:00000000000003bc .L0 
     /tmp/ccvvtIzg.s:1159   .text:00000000000003bc .L0 
     /tmp/ccvvtIzg.s:1160   .text:00000000000003bc .L0 
     /tmp/ccvvtIzg.s:1170   .text:00000000000003c4 .L0 
   src/syscall_c.cpp:159    .text:00000000000003c4 .L0 
     /tmp/ccvvtIzg.s:1176   .text:00000000000003c8 .L0 
     /tmp/ccvvtIzg.s:1177   .text:00000000000003c8 .L0 
   src/syscall_c.cpp:162    .text:00000000000003c8 .L0 
     /tmp/ccvvtIzg.s:1184   .text:00000000000003d0 .L0 
     /tmp/ccvvtIzg.s:1185   .text:00000000000003d0 .L0 
     /tmp/ccvvtIzg.s:1187   .text:00000000000003d4 .L0 
GAS LISTING /tmp/ccvvtIzg.s 			page 40


     /tmp/ccvvtIzg.s:1189   .text:00000000000003dc .L0 
     /tmp/ccvvtIzg.s:1190   .text:00000000000003dc .L0 
     /tmp/ccvvtIzg.s:1192   .text:00000000000003e0 .L0 
     /tmp/ccvvtIzg.s:1194   .text:00000000000003e4 .L0 
     /tmp/ccvvtIzg.s:1200   .text:00000000000003e4 _Z4putcc
     /tmp/ccvvtIzg.s:1203   .text:00000000000003e4 .L0 
     /tmp/ccvvtIzg.s:1205   .text:00000000000003e4 .L0 
     /tmp/ccvvtIzg.s:1206   .text:00000000000003e8 .L0 
     /tmp/ccvvtIzg.s:1208   .text:00000000000003ec .L0 
     /tmp/ccvvtIzg.s:1210   .text:00000000000003f0 .L0 
     /tmp/ccvvtIzg.s:1215   .text:00000000000003f0 .L0 
     /tmp/ccvvtIzg.s:1216   .text:00000000000003f0 .L0 
  src/../h/riscv.hpp:234    .text:00000000000003f0 .L0 
     /tmp/ccvvtIzg.s:1228   .text:00000000000003f4 .L0 
     /tmp/ccvvtIzg.s:1229   .text:00000000000003f4 .L0 
     /tmp/ccvvtIzg.s:1230   .text:00000000000003f4 .L0 
     /tmp/ccvvtIzg.s:1240   .text:00000000000003fc .L0 
   src/syscall_c.cpp:169    .text:00000000000003fc .L0 
     /tmp/ccvvtIzg.s:1247   .text:0000000000000400 .L0 
     /tmp/ccvvtIzg.s:1248   .text:0000000000000404 .L0 
     /tmp/ccvvtIzg.s:1249   .text:0000000000000404 .L0 
     /tmp/ccvvtIzg.s:1251   .text:0000000000000408 .L0 
     /tmp/ccvvtIzg.s:1253   .text:000000000000040c .L0 
     /tmp/ccvvtIzg.s:1259   .text:000000000000040c _Z10changeUserv
     /tmp/ccvvtIzg.s:1262   .text:000000000000040c .L0 
     /tmp/ccvvtIzg.s:1263   .text:000000000000040c .L0 
     /tmp/ccvvtIzg.s:1264   .text:0000000000000410 .L0 
     /tmp/ccvvtIzg.s:1266   .text:0000000000000414 .L0 
     /tmp/ccvvtIzg.s:1268   .text:0000000000000418 .L0 
     /tmp/ccvvtIzg.s:1273   .text:0000000000000418 .L0 
     /tmp/ccvvtIzg.s:1274   .text:0000000000000418 .L0 
     /tmp/ccvvtIzg.s:1275   .text:0000000000000418 .L0 
     /tmp/ccvvtIzg.s:1285   .text:0000000000000420 .L0 
   src/syscall_c.cpp:174    .text:0000000000000420 .L0 
     /tmp/ccvvtIzg.s:1291   .text:0000000000000424 .L0 
     /tmp/ccvvtIzg.s:1293   .text:0000000000000424 .L0 
     /tmp/ccvvtIzg.s:1294   .text:0000000000000428 .L0 
     /tmp/ccvvtIzg.s:1295   .text:0000000000000428 .L0 
     /tmp/ccvvtIzg.s:1297   .text:000000000000042c .L0 
     /tmp/ccvvtIzg.s:1299   .text:0000000000000430 .L0 
     /tmp/ccvvtIzg.s:1305   .text:0000000000000430 .L0 
     /tmp/ccvvtIzg.s:293    .text:00000000000000f0 .L8
     /tmp/ccvvtIzg.s:300    .text:00000000000000f8 .L11
     /tmp/ccvvtIzg.s:186    .text:00000000000000a8 .L6
     /tmp/ccvvtIzg.s:272    .text:00000000000000d4 .L7
     /tmp/ccvvtIzg.s:452    .text:0000000000000184 .L15
     /tmp/ccvvtIzg.s:459    .text:000000000000018c .L18
     /tmp/ccvvtIzg.s:345    .text:000000000000013c .L13
     /tmp/ccvvtIzg.s:431    .text:0000000000000168 .L14
     /tmp/ccvvtIzg.s:2821   .debug_abbrev:0000000000000000 .Ldebug_abbrev0
     /tmp/ccvvtIzg.s:4232   .debug_str:00000000000006bf .LASF135
     /tmp/ccvvtIzg.s:4112   .debug_str:0000000000000349 .LASF136
     /tmp/ccvvtIzg.s:4048   .debug_str:0000000000000154 .LASF137
     /tmp/ccvvtIzg.s:5      .text:0000000000000000 .Ltext0
     /tmp/ccvvtIzg.s:1302   .text:0000000000000430 .Letext0
     /tmp/ccvvtIzg.s:3992   .debug_line:0000000000000000 .Ldebug_line0
     /tmp/ccvvtIzg.s:4146   .debug_str:0000000000000456 .LASF0
GAS LISTING /tmp/ccvvtIzg.s 			page 41


     /tmp/ccvvtIzg.s:4156   .debug_str:0000000000000480 .LASF1
     /tmp/ccvvtIzg.s:4134   .debug_str:000000000000040c .LASF2
     /tmp/ccvvtIzg.s:4106   .debug_str:000000000000032c .LASF4
     /tmp/ccvvtIzg.s:4202   .debug_str:00000000000005d3 .LASF3
     /tmp/ccvvtIzg.s:4020   .debug_str:00000000000000b4 .LASF5
     /tmp/ccvvtIzg.s:4060   .debug_str:00000000000001ee .LASF6
     /tmp/ccvvtIzg.s:4160   .debug_str:00000000000004a4 .LASF7
     /tmp/ccvvtIzg.s:4144   .debug_str:0000000000000443 .LASF8
     /tmp/ccvvtIzg.s:4244   .debug_str:00000000000007cd .LASF9
     /tmp/ccvvtIzg.s:4094   .debug_str:00000000000002c7 .LASF10
     /tmp/ccvvtIzg.s:4176   .debug_str:000000000000050c .LASF11
     /tmp/ccvvtIzg.s:4236   .debug_str:0000000000000788 .LASF12
     /tmp/ccvvtIzg.s:4026   .debug_str:00000000000000c5 .LASF13
     /tmp/ccvvtIzg.s:3998   .debug_str:0000000000000011 .LASF14
     /tmp/ccvvtIzg.s:4040   .debug_str:000000000000011e .LASF15
     /tmp/ccvvtIzg.s:4192   .debug_str:0000000000000577 .LASF16
     /tmp/ccvvtIzg.s:4054   .debug_str:00000000000001b6 .LASF17
     /tmp/ccvvtIzg.s:3994   .debug_str:0000000000000000 .LASF18
     /tmp/ccvvtIzg.s:4070   .debug_str:0000000000000235 .LASF19
     /tmp/ccvvtIzg.s:4154   .debug_str:000000000000047a .LASF138
     /tmp/ccvvtIzg.s:4190   .debug_str:000000000000056c .LASF82
     /tmp/ccvvtIzg.s:4254   .debug_str:000000000000080c .LASF84
     /tmp/ccvvtIzg.s:4000   .debug_str:0000000000000021 .LASF20
     /tmp/ccvvtIzg.s:4214   .debug_str:0000000000000634 .LASF22
     /tmp/ccvvtIzg.s:4066   .debug_str:000000000000021a .LASF24
     /tmp/ccvvtIzg.s:4064   .debug_str:0000000000000205 .LASF26
     /tmp/ccvvtIzg.s:4204   .debug_str:00000000000005e5 .LASF21
     /tmp/ccvvtIzg.s:4182   .debug_str:0000000000000535 .LASF23
     /tmp/ccvvtIzg.s:4230   .debug_str:00000000000006b8 .LASF25
     /tmp/ccvvtIzg.s:4220   .debug_str:0000000000000668 .LASF27
     /tmp/ccvvtIzg.s:4084   .debug_str:0000000000000295 .LASF28
     /tmp/ccvvtIzg.s:4056   .debug_str:00000000000001cc .LASF29
     /tmp/ccvvtIzg.s:3996   .debug_str:0000000000000009 .LASF30
     /tmp/ccvvtIzg.s:4100   .debug_str:00000000000002f6 .LASF31
     /tmp/ccvvtIzg.s:4074   .debug_str:000000000000024c .LASF32
     /tmp/ccvvtIzg.s:4034   .debug_str:00000000000000e4 .LASF33
     /tmp/ccvvtIzg.s:4262   .debug_str:0000000000000846 .LASF34
     /tmp/ccvvtIzg.s:4076   .debug_str:0000000000000254 .LASF35
     /tmp/ccvvtIzg.s:4148   .debug_str:0000000000000463 .LASF36
     /tmp/ccvvtIzg.s:4252   .debug_str:00000000000007f9 .LASF37
     /tmp/ccvvtIzg.s:4016   .debug_str:000000000000009f .LASF38
     /tmp/ccvvtIzg.s:4082   .debug_str:0000000000000282 .LASF39
     /tmp/ccvvtIzg.s:4090   .debug_str:00000000000002b2 .LASF40
     /tmp/ccvvtIzg.s:4228   .debug_str:00000000000006a6 .LASF41
     /tmp/ccvvtIzg.s:4014   .debug_str:0000000000000099 .LASF42
     /tmp/ccvvtIzg.s:4270   .debug_str:0000000000000881 .LASF43
     /tmp/ccvvtIzg.s:4260   .debug_str:000000000000083b .LASF44
     /tmp/ccvvtIzg.s:4198   .debug_str:00000000000005b2 .LASF45
     /tmp/ccvvtIzg.s:4116   .debug_str:000000000000036c .LASF46
     /tmp/ccvvtIzg.s:4216   .debug_str:0000000000000649 .LASF47
     /tmp/ccvvtIzg.s:4038   .debug_str:0000000000000114 .LASF48
     /tmp/ccvvtIzg.s:4102   .debug_str:000000000000030a .LASF49
     /tmp/ccvvtIzg.s:4136   .debug_str:000000000000041a .LASF50
     /tmp/ccvvtIzg.s:4098   .debug_str:00000000000002e0 .LASF51
     /tmp/ccvvtIzg.s:4226   .debug_str:00000000000006a1 .LASF52
     /tmp/ccvvtIzg.s:4072   .debug_str:000000000000023b .LASF53
     /tmp/ccvvtIzg.s:4022   .debug_str:00000000000000bb .LASF54
GAS LISTING /tmp/ccvvtIzg.s 			page 42


     /tmp/ccvvtIzg.s:4138   .debug_str:0000000000000424 .LASF55
     /tmp/ccvvtIzg.s:4124   .debug_str:00000000000003b0 .LASF56
     /tmp/ccvvtIzg.s:4256   .debug_str:0000000000000824 .LASF57
     /tmp/ccvvtIzg.s:4024   .debug_str:00000000000000c0 .LASF58
     /tmp/ccvvtIzg.s:4114   .debug_str:000000000000035b .LASF59
     /tmp/ccvvtIzg.s:4162   .debug_str:00000000000004b7 .LASF60
     /tmp/ccvvtIzg.s:4238   .debug_str:0000000000000797 .LASF61
     /tmp/ccvvtIzg.s:4150   .debug_str:000000000000046a .LASF62
     /tmp/ccvvtIzg.s:4078   .debug_str:0000000000000268 .LASF63
     /tmp/ccvvtIzg.s:4166   .debug_str:00000000000004c1 .LASF64
     /tmp/ccvvtIzg.s:4194   .debug_str:000000000000058d .LASF65
     /tmp/ccvvtIzg.s:4028   .debug_str:00000000000000d5 .LASF66
     /tmp/ccvvtIzg.s:4044   .debug_str:000000000000013a .LASF67
     /tmp/ccvvtIzg.s:4234   .debug_str:0000000000000783 .LASF68
     /tmp/ccvvtIzg.s:4158   .debug_str:0000000000000493 .LASF69
     /tmp/ccvvtIzg.s:4030   .debug_str:00000000000000da .LASF70
     /tmp/ccvvtIzg.s:4006   .debug_str:000000000000004d .LASF71
     /tmp/ccvvtIzg.s:4174   .debug_str:0000000000000507 .LASF72
     /tmp/ccvvtIzg.s:4108   .debug_str:0000000000000333 .LASF73
     /tmp/ccvvtIzg.s:4032   .debug_str:00000000000000df .LASF74
     /tmp/ccvvtIzg.s:4210   .debug_str:000000000000060c .LASF75
     /tmp/ccvvtIzg.s:4178   .debug_str:000000000000051b .LASF76
     /tmp/ccvvtIzg.s:4170   .debug_str:00000000000004e8 .LASF77
     /tmp/ccvvtIzg.s:4110   .debug_str:0000000000000344 .LASF78
     /tmp/ccvvtIzg.s:4186   .debug_str:0000000000000556 .LASF79
     /tmp/ccvvtIzg.s:4096   .debug_str:00000000000002d5 .LASF80
     /tmp/ccvvtIzg.s:4128   .debug_str:00000000000003dc .LASF81
     /tmp/ccvvtIzg.s:4208   .debug_str:00000000000005fd .LASF83
     /tmp/ccvvtIzg.s:4036   .debug_str:00000000000000f8 .LASF85
     /tmp/ccvvtIzg.s:4240   .debug_str:00000000000007a8 .LASF86
     /tmp/ccvvtIzg.s:4126   .debug_str:00000000000003b5 .LASF88
     /tmp/ccvvtIzg.s:4212   .debug_str:000000000000061d .LASF87
     /tmp/ccvvtIzg.s:4008   .debug_str:000000000000005e .LASF89
     /tmp/ccvvtIzg.s:4002   .debug_str:000000000000002a .LASF90
     /tmp/ccvvtIzg.s:4168   .debug_str:00000000000004c6 .LASF91
     /tmp/ccvvtIzg.s:4250   .debug_str:00000000000007f0 .LASF92
     /tmp/ccvvtIzg.s:4152   .debug_str:000000000000046f .LASF93
     /tmp/ccvvtIzg.s:4042   .debug_str:000000000000012a .LASF95
     /tmp/ccvvtIzg.s:1260   .text:000000000000040c .LFB48
     /tmp/ccvvtIzg.s:1300   .text:0000000000000430 .LFE48
     /tmp/ccvvtIzg.s:1271   .text:0000000000000418 .LBB144
     /tmp/ccvvtIzg.s:1283   .text:0000000000000420 .LBE144
     /tmp/ccvvtIzg.s:3406   .debug_loc:0000000000000000 .LLST52
     /tmp/ccvvtIzg.s:4140   .debug_str:0000000000000435 .LASF94
     /tmp/ccvvtIzg.s:4080   .debug_str:0000000000000279 .LASF96
     /tmp/ccvvtIzg.s:1201   .text:00000000000003e4 .LFB47
     /tmp/ccvvtIzg.s:1254   .text:000000000000040c .LFE47
     /tmp/ccvvtIzg.s:1213   .text:00000000000003f0 .LBB140
     /tmp/ccvvtIzg.s:1224   .text:00000000000003f4 .LBE140
     /tmp/ccvvtIzg.s:3415   .debug_loc:0000000000000025 .LLST50
     /tmp/ccvvtIzg.s:1226   .text:00000000000003f4 .LBB142
     /tmp/ccvvtIzg.s:1238   .text:00000000000003fc .LBE142
     /tmp/ccvvtIzg.s:3422   .debug_loc:0000000000000048 .LLST51
     /tmp/ccvvtIzg.s:4164   .debug_str:00000000000004bc .LASF97
     /tmp/ccvvtIzg.s:4130   .debug_str:00000000000003f4 .LASF98
     /tmp/ccvvtIzg.s:4200   .debug_str:00000000000005ca .LASF100
     /tmp/ccvvtIzg.s:1145   .text:00000000000003b0 .LFB46
GAS LISTING /tmp/ccvvtIzg.s 			page 43


     /tmp/ccvvtIzg.s:1195   .text:00000000000003e4 .LFE46
     /tmp/ccvvtIzg.s:1156   .text:00000000000003bc .LBB138
     /tmp/ccvvtIzg.s:1168   .text:00000000000003c4 .LBE138
     /tmp/ccvvtIzg.s:3431   .debug_loc:000000000000006d .LLST49
     /tmp/ccvvtIzg.s:4012   .debug_str:000000000000008e .LASF99
     /tmp/ccvvtIzg.s:4062   .debug_str:00000000000001f5 .LASF101
     /tmp/ccvvtIzg.s:1118   .text:0000000000000394 .LFB45
     /tmp/ccvvtIzg.s:1139   .text:00000000000003b0 .LFE45
     /tmp/ccvvtIzg.s:3440   .debug_loc:0000000000000092 .LLST48
     /tmp/ccvvtIzg.s:4242   .debug_str:00000000000007c2 .LASF102
     /tmp/ccvvtIzg.s:4196   .debug_str:000000000000059e .LASF103
     /tmp/ccvvtIzg.s:1047   .text:000000000000035c .LFB44
     /tmp/ccvvtIzg.s:1112   .text:0000000000000394 .LFE44
     /tmp/ccvvtIzg.s:3454   .debug_loc:00000000000000cb .LLST45
     /tmp/ccvvtIzg.s:1059   .text:0000000000000368 .LBB134
     /tmp/ccvvtIzg.s:1070   .text:000000000000036c .LBE134
     /tmp/ccvvtIzg.s:3468   .debug_loc:0000000000000104 .LLST46
     /tmp/ccvvtIzg.s:1072   .text:000000000000036c .LBB136
     /tmp/ccvvtIzg.s:1084   .text:0000000000000374 .LBE136
     /tmp/ccvvtIzg.s:3475   .debug_loc:0000000000000127 .LLST47
     /tmp/ccvvtIzg.s:4046   .debug_str:000000000000014b .LASF104
     /tmp/ccvvtIzg.s:4222   .debug_str:000000000000067b .LASF105
     /tmp/ccvvtIzg.s:976    .text:0000000000000324 .LFB43
     /tmp/ccvvtIzg.s:1041   .text:000000000000035c .LFE43
     /tmp/ccvvtIzg.s:3484   .debug_loc:000000000000014c .LLST42
     /tmp/ccvvtIzg.s:988    .text:0000000000000330 .LBB130
     /tmp/ccvvtIzg.s:999    .text:0000000000000334 .LBE130
     /tmp/ccvvtIzg.s:3498   .debug_loc:0000000000000185 .LLST43
     /tmp/ccvvtIzg.s:1001   .text:0000000000000334 .LBB132
     /tmp/ccvvtIzg.s:1013   .text:000000000000033c .LBE132
     /tmp/ccvvtIzg.s:3505   .debug_loc:00000000000001a8 .LLST44
     /tmp/ccvvtIzg.s:4118   .debug_str:0000000000000377 .LASF106
     /tmp/ccvvtIzg.s:4068   .debug_str:0000000000000223 .LASF107
     /tmp/ccvvtIzg.s:905    .text:00000000000002ec .LFB42
     /tmp/ccvvtIzg.s:970    .text:0000000000000324 .LFE42
     /tmp/ccvvtIzg.s:4218   .debug_str:0000000000000661 .LASF108
     /tmp/ccvvtIzg.s:3514   .debug_loc:00000000000001cd .LLST39
     /tmp/ccvvtIzg.s:917    .text:00000000000002f8 .LBB126
     /tmp/ccvvtIzg.s:928    .text:00000000000002fc .LBE126
     /tmp/ccvvtIzg.s:3528   .debug_loc:0000000000000206 .LLST40
     /tmp/ccvvtIzg.s:930    .text:00000000000002fc .LBB128
     /tmp/ccvvtIzg.s:942    .text:0000000000000304 .LBE128
     /tmp/ccvvtIzg.s:3535   .debug_loc:0000000000000229 .LLST41
     /tmp/ccvvtIzg.s:4248   .debug_str:00000000000007e7 .LASF109
     /tmp/ccvvtIzg.s:4050   .debug_str:000000000000018d .LASF110
     /tmp/ccvvtIzg.s:817    .text:00000000000002a8 .LFB41
     /tmp/ccvvtIzg.s:899    .text:00000000000002ec .LFE41
     /tmp/ccvvtIzg.s:3544   .debug_loc:000000000000024e .LLST34
     /tmp/ccvvtIzg.s:4268   .debug_str:000000000000087c .LASF111
     /tmp/ccvvtIzg.s:3558   .debug_loc:0000000000000287 .LLST35
     /tmp/ccvvtIzg.s:833    .text:00000000000002bc .LBB120
     /tmp/ccvvtIzg.s:844    .text:00000000000002c0 .LBE120
     /tmp/ccvvtIzg.s:3572   .debug_loc:00000000000002c0 .LLST36
     /tmp/ccvvtIzg.s:846    .text:00000000000002c0 .LBB122
     /tmp/ccvvtIzg.s:857    .text:00000000000002c4 .LBE122
     /tmp/ccvvtIzg.s:3579   .debug_loc:00000000000002e3 .LLST37
     /tmp/ccvvtIzg.s:859    .text:00000000000002c4 .LBB124
GAS LISTING /tmp/ccvvtIzg.s 			page 44


     /tmp/ccvvtIzg.s:871    .text:00000000000002cc .LBE124
     /tmp/ccvvtIzg.s:3586   .debug_loc:0000000000000306 .LLST38
     /tmp/ccvvtIzg.s:4018   .debug_str:00000000000000a6 .LASF112
     /tmp/ccvvtIzg.s:4132   .debug_str:00000000000003f9 .LASF113
     /tmp/ccvvtIzg.s:761    .text:0000000000000274 .LFB40
     /tmp/ccvvtIzg.s:811    .text:00000000000002a8 .LFE40
     /tmp/ccvvtIzg.s:772    .text:0000000000000280 .LBB118
     /tmp/ccvvtIzg.s:784    .text:0000000000000288 .LBE118
     /tmp/ccvvtIzg.s:3595   .debug_loc:000000000000032b .LLST33
     /tmp/ccvvtIzg.s:4088   .debug_str:00000000000002ad .LASF114
     /tmp/ccvvtIzg.s:4266   .debug_str:000000000000086f .LASF115
     /tmp/ccvvtIzg.s:702    .text:000000000000024c .LFB39
     /tmp/ccvvtIzg.s:755    .text:0000000000000274 .LFE39
     /tmp/ccvvtIzg.s:714    .text:0000000000000258 .LBB114
     /tmp/ccvvtIzg.s:725    .text:000000000000025c .LBE114
     /tmp/ccvvtIzg.s:3604   .debug_loc:0000000000000350 .LLST31
     /tmp/ccvvtIzg.s:727    .text:000000000000025c .LBB116
     /tmp/ccvvtIzg.s:739    .text:0000000000000264 .LBE116
     /tmp/ccvvtIzg.s:3611   .debug_loc:0000000000000373 .LLST32
     /tmp/ccvvtIzg.s:4122   .debug_str:00000000000003a3 .LASF116
     /tmp/ccvvtIzg.s:4052   .debug_str:00000000000001a0 .LASF117
     /tmp/ccvvtIzg.s:631    .text:0000000000000214 .LFB38
     /tmp/ccvvtIzg.s:696    .text:000000000000024c .LFE38
     /tmp/ccvvtIzg.s:3619   .debug_loc:0000000000000397 .LLST28
     /tmp/ccvvtIzg.s:643    .text:0000000000000220 .LBB110
     /tmp/ccvvtIzg.s:654    .text:0000000000000224 .LBE110
     /tmp/ccvvtIzg.s:3633   .debug_loc:00000000000003d0 .LLST29
     /tmp/ccvvtIzg.s:656    .text:0000000000000224 .LBB112
     /tmp/ccvvtIzg.s:668    .text:000000000000022c .LBE112
     /tmp/ccvvtIzg.s:3640   .debug_loc:00000000000003f3 .LLST30
     /tmp/ccvvtIzg.s:4104   .debug_str:0000000000000320 .LASF118
     /tmp/ccvvtIzg.s:4224   .debug_str:000000000000068c .LASF119
     /tmp/ccvvtIzg.s:572    .text:00000000000001ec .LFB37
     /tmp/ccvvtIzg.s:625    .text:0000000000000214 .LFE37
     /tmp/ccvvtIzg.s:584    .text:00000000000001f8 .LBB106
     /tmp/ccvvtIzg.s:595    .text:00000000000001fc .LBE106
     /tmp/ccvvtIzg.s:3648   .debug_loc:0000000000000417 .LLST26
     /tmp/ccvvtIzg.s:597    .text:00000000000001fc .LBB108
     /tmp/ccvvtIzg.s:609    .text:0000000000000204 .LBE108
     /tmp/ccvvtIzg.s:3655   .debug_loc:000000000000043a .LLST27
     /tmp/ccvvtIzg.s:4086   .debug_str:000000000000029d .LASF120
     /tmp/ccvvtIzg.s:4180   .debug_str:0000000000000520 .LASF121
     /tmp/ccvvtIzg.s:527    .text:00000000000001c8 .LFB36
     /tmp/ccvvtIzg.s:566    .text:00000000000001ec .LFE36
     /tmp/ccvvtIzg.s:538    .text:00000000000001d4 .LBB104
     /tmp/ccvvtIzg.s:550    .text:00000000000001dc .LBE104
     /tmp/ccvvtIzg.s:3663   .debug_loc:000000000000045e .LLST25
     /tmp/ccvvtIzg.s:4010   .debug_str:0000000000000082 .LASF122
     /tmp/ccvvtIzg.s:4206   .debug_str:00000000000005ec .LASF123
     /tmp/ccvvtIzg.s:471    .text:0000000000000194 .LFB35
     /tmp/ccvvtIzg.s:521    .text:00000000000001c8 .LFE35
     /tmp/ccvvtIzg.s:482    .text:00000000000001a0 .LBB102
     /tmp/ccvvtIzg.s:494    .text:00000000000001a8 .LBE102
     /tmp/ccvvtIzg.s:3671   .debug_loc:0000000000000482 .LLST24
     /tmp/ccvvtIzg.s:4092   .debug_str:00000000000002b8 .LASF124
     /tmp/ccvvtIzg.s:4120   .debug_str:0000000000000381 .LASF125
     /tmp/ccvvtIzg.s:312    .text:0000000000000100 .LFB34
GAS LISTING /tmp/ccvvtIzg.s 			page 45


     /tmp/ccvvtIzg.s:465    .text:0000000000000194 .LFE34
     /tmp/ccvvtIzg.s:3679   .debug_loc:00000000000004a6 .LLST15
     /tmp/ccvvtIzg.s:4184   .debug_str:0000000000000548 .LASF126
     /tmp/ccvvtIzg.s:3705   .debug_loc:0000000000000518 .LLST16
     /tmp/ccvvtIzg.s:3727   .debug_loc:0000000000000577 .LLST17
     /tmp/ccvvtIzg.s:4258   .debug_str:0000000000000835 .LASF127
     /tmp/ccvvtIzg.s:3753   .debug_loc:00000000000005e9 .LLST18
     /tmp/ccvvtIzg.s:347    .text:000000000000013c .LBB92
     /tmp/ccvvtIzg.s:358    .text:0000000000000140 .LBE92
     /tmp/ccvvtIzg.s:3764   .debug_loc:000000000000061f .LLST19
     /tmp/ccvvtIzg.s:360    .text:0000000000000140 .LBB94
     /tmp/ccvvtIzg.s:371    .text:0000000000000144 .LBE94
     /tmp/ccvvtIzg.s:3771   .debug_loc:0000000000000642 .LLST20
     /tmp/ccvvtIzg.s:373    .text:0000000000000144 .LBB96
     /tmp/ccvvtIzg.s:384    .text:0000000000000148 .LBE96
     /tmp/ccvvtIzg.s:3778   .debug_loc:0000000000000665 .LLST21
     /tmp/ccvvtIzg.s:386    .text:0000000000000148 .LBB98
     /tmp/ccvvtIzg.s:397    .text:000000000000014c .LBE98
     /tmp/ccvvtIzg.s:3785   .debug_loc:0000000000000688 .LLST22
     /tmp/ccvvtIzg.s:399    .text:000000000000014c .LBB100
     /tmp/ccvvtIzg.s:411    .text:0000000000000154 .LBE100
     /tmp/ccvvtIzg.s:3792   .debug_loc:00000000000006ab .LLST23
     /tmp/ccvvtIzg.s:341    .text:0000000000000138 .LVL29
     /tmp/ccvvtIzg.s:4058   .debug_str:00000000000001e0 .LASF128
     /tmp/ccvvtIzg.s:4264   .debug_str:000000000000084e .LASF129
     /tmp/ccvvtIzg.s:153    .text:000000000000006c .LFB33
     /tmp/ccvvtIzg.s:306    .text:0000000000000100 .LFE33
     /tmp/ccvvtIzg.s:3800   .debug_loc:00000000000006cf .LLST6
     /tmp/ccvvtIzg.s:3826   .debug_loc:0000000000000741 .LLST7
     /tmp/ccvvtIzg.s:3848   .debug_loc:00000000000007a0 .LLST8
     /tmp/ccvvtIzg.s:3874   .debug_loc:0000000000000812 .LLST9
     /tmp/ccvvtIzg.s:188    .text:00000000000000a8 .LBB82
     /tmp/ccvvtIzg.s:199    .text:00000000000000ac .LBE82
     /tmp/ccvvtIzg.s:3885   .debug_loc:0000000000000848 .LLST10
     /tmp/ccvvtIzg.s:201    .text:00000000000000ac .LBB84
     /tmp/ccvvtIzg.s:212    .text:00000000000000b0 .LBE84
     /tmp/ccvvtIzg.s:3892   .debug_loc:000000000000086b .LLST11
     /tmp/ccvvtIzg.s:214    .text:00000000000000b0 .LBB86
     /tmp/ccvvtIzg.s:225    .text:00000000000000b4 .LBE86
     /tmp/ccvvtIzg.s:3899   .debug_loc:000000000000088e .LLST12
     /tmp/ccvvtIzg.s:227    .text:00000000000000b4 .LBB88
     /tmp/ccvvtIzg.s:238    .text:00000000000000b8 .LBE88
     /tmp/ccvvtIzg.s:3906   .debug_loc:00000000000008b1 .LLST13
     /tmp/ccvvtIzg.s:240    .text:00000000000000b8 .LBB90
     /tmp/ccvvtIzg.s:252    .text:00000000000000c0 .LBE90
     /tmp/ccvvtIzg.s:3913   .debug_loc:00000000000008d4 .LLST14
     /tmp/ccvvtIzg.s:182    .text:00000000000000a4 .LVL12
     /tmp/ccvvtIzg.s:4142   .debug_str:000000000000043a .LASF130
     /tmp/ccvvtIzg.s:4172   .debug_str:00000000000004f9 .LASF131
     /tmp/ccvvtIzg.s:82     .text:0000000000000034 .LFB32
     /tmp/ccvvtIzg.s:147    .text:000000000000006c .LFE32
     /tmp/ccvvtIzg.s:3921   .debug_loc:00000000000008f8 .LLST3
     /tmp/ccvvtIzg.s:94     .text:0000000000000040 .LBB78
     /tmp/ccvvtIzg.s:105    .text:0000000000000044 .LBE78
     /tmp/ccvvtIzg.s:3935   .debug_loc:0000000000000931 .LLST4
     /tmp/ccvvtIzg.s:107    .text:0000000000000044 .LBB80
     /tmp/ccvvtIzg.s:119    .text:000000000000004c .LBE80
GAS LISTING /tmp/ccvvtIzg.s 			page 46


     /tmp/ccvvtIzg.s:3942   .debug_loc:0000000000000954 .LLST5
     /tmp/ccvvtIzg.s:4246   .debug_str:00000000000007dd .LASF132
     /tmp/ccvvtIzg.s:4004   .debug_str:000000000000003f .LASF133
     /tmp/ccvvtIzg.s:10     .text:0000000000000000 .LFB31
     /tmp/ccvvtIzg.s:76     .text:0000000000000034 .LFE31
     /tmp/ccvvtIzg.s:4188   .debug_str:0000000000000567 .LASF134
     /tmp/ccvvtIzg.s:3950   .debug_loc:0000000000000978 .LLST0
     /tmp/ccvvtIzg.s:23     .text:000000000000000c .LBB74
     /tmp/ccvvtIzg.s:35     .text:0000000000000010 .LBE74
     /tmp/ccvvtIzg.s:3964   .debug_loc:00000000000009b1 .LLST1
     /tmp/ccvvtIzg.s:37     .text:0000000000000010 .LBB76
     /tmp/ccvvtIzg.s:49     .text:0000000000000018 .LBE76
     /tmp/ccvvtIzg.s:3971   .debug_loc:00000000000009d4 .LLST2
     /tmp/ccvvtIzg.s:1270   .text:0000000000000418 .LVL93
     /tmp/ccvvtIzg.s:1280   .text:0000000000000420 .LVL94
     /tmp/ccvvtIzg.s:1212   .text:00000000000003f0 .LVL90
     /tmp/ccvvtIzg.s:1221   .text:00000000000003f4 .LVL91
     /tmp/ccvvtIzg.s:1235   .text:00000000000003fc .LVL92
     /tmp/ccvvtIzg.s:1155   .text:00000000000003bc .LVL87
     /tmp/ccvvtIzg.s:1165   .text:00000000000003c4 .LVL88
     /tmp/ccvvtIzg.s:1121   .text:0000000000000394 .LVL85
     /tmp/ccvvtIzg.s:1131   .text:00000000000003a4 .LVL86
     /tmp/ccvvtIzg.s:1050   .text:000000000000035c .LVL80
     /tmp/ccvvtIzg.s:1102   .text:0000000000000384 .LVL84
     /tmp/ccvvtIzg.s:1058   .text:0000000000000368 .LVL81
     /tmp/ccvvtIzg.s:1067   .text:000000000000036c .LVL82
     /tmp/ccvvtIzg.s:1081   .text:0000000000000374 .LVL83
     /tmp/ccvvtIzg.s:979    .text:0000000000000324 .LVL75
     /tmp/ccvvtIzg.s:1031   .text:000000000000034c .LVL79
     /tmp/ccvvtIzg.s:987    .text:0000000000000330 .LVL76
     /tmp/ccvvtIzg.s:996    .text:0000000000000334 .LVL77
     /tmp/ccvvtIzg.s:1010   .text:000000000000033c .LVL78
     /tmp/ccvvtIzg.s:908    .text:00000000000002ec .LVL70
     /tmp/ccvvtIzg.s:960    .text:0000000000000314 .LVL74
     /tmp/ccvvtIzg.s:916    .text:00000000000002f8 .LVL71
     /tmp/ccvvtIzg.s:925    .text:00000000000002fc .LVL72
     /tmp/ccvvtIzg.s:939    .text:0000000000000304 .LVL73
     /tmp/ccvvtIzg.s:820    .text:00000000000002a8 .LVL63
     /tmp/ccvvtIzg.s:889    .text:00000000000002dc .LVL69
     /tmp/ccvvtIzg.s:830    .text:00000000000002b8 .LVL64
     /tmp/ccvvtIzg.s:832    .text:00000000000002bc .LVL65
     /tmp/ccvvtIzg.s:841    .text:00000000000002c0 .LVL66
     /tmp/ccvvtIzg.s:854    .text:00000000000002c4 .LVL67
     /tmp/ccvvtIzg.s:868    .text:00000000000002cc .LVL68
     /tmp/ccvvtIzg.s:771    .text:0000000000000280 .LVL61
     /tmp/ccvvtIzg.s:781    .text:0000000000000288 .LVL62
     /tmp/ccvvtIzg.s:713    .text:0000000000000258 .LVL58
     /tmp/ccvvtIzg.s:722    .text:000000000000025c .LVL59
     /tmp/ccvvtIzg.s:736    .text:0000000000000264 .LVL60
     /tmp/ccvvtIzg.s:634    .text:0000000000000214 .LVL52
     /tmp/ccvvtIzg.s:686    .text:000000000000023c .LVL56
     /tmp/ccvvtIzg.s:642    .text:0000000000000220 .LVL53
     /tmp/ccvvtIzg.s:651    .text:0000000000000224 .LVL54
     /tmp/ccvvtIzg.s:665    .text:000000000000022c .LVL55
     /tmp/ccvvtIzg.s:583    .text:00000000000001f8 .LVL49
     /tmp/ccvvtIzg.s:592    .text:00000000000001fc .LVL50
     /tmp/ccvvtIzg.s:606    .text:0000000000000204 .LVL51
GAS LISTING /tmp/ccvvtIzg.s 			page 47


     /tmp/ccvvtIzg.s:537    .text:00000000000001d4 .LVL46
     /tmp/ccvvtIzg.s:547    .text:00000000000001dc .LVL47
     /tmp/ccvvtIzg.s:481    .text:00000000000001a0 .LVL44
     /tmp/ccvvtIzg.s:491    .text:00000000000001a8 .LVL45
     /tmp/ccvvtIzg.s:315    .text:0000000000000100 .LVL27
     /tmp/ccvvtIzg.s:339    .text:0000000000000130 .LVL28
     /tmp/ccvvtIzg.s:444    .text:0000000000000178 .LVL38
     /tmp/ccvvtIzg.s:451    .text:0000000000000184 .LVL40
     /tmp/ccvvtIzg.s:456    .text:0000000000000188 .LVL41
     /tmp/ccvvtIzg.s:441    .text:0000000000000174 .LVL37
     /tmp/ccvvtIzg.s:447    .text:000000000000017c .LVL39
     /tmp/ccvvtIzg.s:458    .text:000000000000018c .LVL42
     /tmp/ccvvtIzg.s:429    .text:0000000000000164 .LVL36
     /tmp/ccvvtIzg.s:462    .text:0000000000000190 .LVL43
     /tmp/ccvvtIzg.s:344    .text:000000000000013c .LVL30
     /tmp/ccvvtIzg.s:355    .text:0000000000000140 .LVL31
     /tmp/ccvvtIzg.s:368    .text:0000000000000144 .LVL32
     /tmp/ccvvtIzg.s:381    .text:0000000000000148 .LVL33
     /tmp/ccvvtIzg.s:394    .text:000000000000014c .LVL34
     /tmp/ccvvtIzg.s:408    .text:0000000000000154 .LVL35
     /tmp/ccvvtIzg.s:156    .text:000000000000006c .LVL10
     /tmp/ccvvtIzg.s:180    .text:000000000000009c .LVL11
     /tmp/ccvvtIzg.s:285    .text:00000000000000e4 .LVL21
     /tmp/ccvvtIzg.s:292    .text:00000000000000f0 .LVL23
     /tmp/ccvvtIzg.s:297    .text:00000000000000f4 .LVL24
     /tmp/ccvvtIzg.s:282    .text:00000000000000e0 .LVL20
     /tmp/ccvvtIzg.s:288    .text:00000000000000e8 .LVL22
     /tmp/ccvvtIzg.s:299    .text:00000000000000f8 .LVL25
     /tmp/ccvvtIzg.s:270    .text:00000000000000d0 .LVL19
     /tmp/ccvvtIzg.s:303    .text:00000000000000fc .LVL26
     /tmp/ccvvtIzg.s:185    .text:00000000000000a8 .LVL13
     /tmp/ccvvtIzg.s:196    .text:00000000000000ac .LVL14
     /tmp/ccvvtIzg.s:209    .text:00000000000000b0 .LVL15
     /tmp/ccvvtIzg.s:222    .text:00000000000000b4 .LVL16
     /tmp/ccvvtIzg.s:235    .text:00000000000000b8 .LVL17
     /tmp/ccvvtIzg.s:249    .text:00000000000000c0 .LVL18
     /tmp/ccvvtIzg.s:85     .text:0000000000000034 .LVL5
     /tmp/ccvvtIzg.s:137    .text:000000000000005c .LVL9
     /tmp/ccvvtIzg.s:93     .text:0000000000000040 .LVL6
     /tmp/ccvvtIzg.s:102    .text:0000000000000044 .LVL7
     /tmp/ccvvtIzg.s:116    .text:000000000000004c .LVL8
     /tmp/ccvvtIzg.s:14     .text:0000000000000000 .LVL0
     /tmp/ccvvtIzg.s:67     .text:0000000000000028 .LVL4
     /tmp/ccvvtIzg.s:22     .text:000000000000000c .LVL1
     /tmp/ccvvtIzg.s:32     .text:0000000000000010 .LVL2
     /tmp/ccvvtIzg.s:46     .text:0000000000000018 .LVL3
     /tmp/ccvvtIzg.s:1306   .debug_info:0000000000000000 .Ldebug_info0

NO UNDEFINED SYMBOLS
